EXPORTS
??_R0?AUCallSlots@?$SignalBase@UNullMutex@detail@sig@wpi@@$$V@sig@wpi@@@8 	 DATA
??_R0?AUCallSlots@?$SignalBase@UNullMutex@detail@sig@wpi@@AEAVBuffer@uv@4@_KAEBUsockaddr@@I@sig@wpi@@@8 	 DATA
??_R0?AV?$Slot@P8TimeSyncClient@tsp@wpi@@EAAXAEAVBuffer@uv@3@_KAEBUsockaddr@@I@ZQEAV123@U?$typelist@AEAVBuffer@uv@wpi@@_KAEBUsockaddr@@I@trait@sig@3@@detail@sig@wpi@@@8 	 DATA
??_R0?AV?$Slot@P8TimeSyncClient@tsp@wpi@@EAAXXZPEAV123@U?$typelist@$$V@trait@sig@3@@detail@sig@wpi@@@8 	 DATA
??_R0?AV?$Slot@P8TimeSyncServer@tsp@wpi@@EAAXAEAVBuffer@uv@3@_KAEBUsockaddr@@I@ZQEAV123@U?$typelist@AEAVBuffer@uv@wpi@@_KAEBUsockaddr@@I@trait@sig@3@@detail@sig@wpi@@@8 	 DATA
??_R0?AV?$Slot@V?$function@$$A6AXAEAVBuffer@uv@wpi@@_KAEBUsockaddr@@I@Z@std@@U?$typelist@AEAVBuffer@uv@wpi@@_KAEBUsockaddr@@I@trait@sig@wpi@@@detail@sig@wpi@@@8 	 DATA
??_R0?AV?$Slot@V?$function@$$A6AXXZ@std@@U?$typelist@$$V@trait@sig@wpi@@@detail@sig@wpi@@@8 	 DATA
??_R0?AV?$SlotBase@$$V@detail@sig@wpi@@@8 	 DATA
??_R0?AV?$SlotBase@AEAVBuffer@uv@wpi@@_KAEBUsockaddr@@I@detail@sig@wpi@@@8 	 DATA
??_R0?AV?$_Func_base@X$$V@std@@@8 	 DATA
??_R0?AV?$_Func_base@XAEAVBuffer@uv@wpi@@_KAEBUsockaddr@@I@std@@@8 	 DATA
??_R0?AV?$_Func_base@XAEAVLoop@uv@wpi@@@std@@@8 	 DATA
??_R0?AV?$_Func_base@XIPEBDIPEBD@std@@@8 	 DATA
??_R0?AV?$_Func_base@_K$$V@std@@@8 	 DATA
??_R0?AV?$_Func_impl_no_alloc@P6AXIPEBDI0@ZXIPEBDIPEBD@std@@@8 	 DATA
??_R0?AV?$_Func_impl_no_alloc@P6A_JXZ_K$$V@std@@@8 	 DATA
??_R0?AV?$_Func_impl_no_alloc@UCallSlots@?$SignalBase@UNullMutex@detail@sig@wpi@@$$V@sig@wpi@@X$$V@std@@@8 	 DATA
??_R0?AV?$_Func_impl_no_alloc@UCallSlots@?$SignalBase@UNullMutex@detail@sig@wpi@@AEAVBuffer@uv@4@_KAEBUsockaddr@@I@sig@wpi@@XAEAVBuffer@uv@4@_KAEBUsockaddr@@I@std@@@8 	 DATA
??_R0?AV?$_Iosb@H@std@@@8 	 DATA
??_R0?AV?$_Ref_count_obj2@V?$Slot@P8TimeSyncClient@tsp@wpi@@EAAXAEAVBuffer@uv@3@_KAEBUsockaddr@@I@ZQEAV123@U?$typelist@AEAVBuffer@uv@wpi@@_KAEBUsockaddr@@I@trait@sig@3@@detail@sig@wpi@@@std@@@8 	 DATA
??_R0?AV?$_Ref_count_obj2@V?$Slot@P8TimeSyncClient@tsp@wpi@@EAAXXZPEAV123@U?$typelist@$$V@trait@sig@3@@detail@sig@wpi@@@std@@@8 	 DATA
??_R0?AV?$_Ref_count_obj2@V?$Slot@P8TimeSyncServer@tsp@wpi@@EAAXAEAVBuffer@uv@3@_KAEBUsockaddr@@I@ZQEAV123@U?$typelist@AEAVBuffer@uv@wpi@@_KAEBUsockaddr@@I@trait@sig@3@@detail@sig@wpi@@@std@@@8 	 DATA
??_R0?AV?$_Ref_count_obj2@V?$Slot@V?$function@$$A6AXAEAVBuffer@uv@wpi@@_KAEBUsockaddr@@I@Z@std@@U?$typelist@AEAVBuffer@uv@wpi@@_KAEBUsockaddr@@I@trait@sig@wpi@@@detail@sig@wpi@@@std@@@8 	 DATA
??_R0?AV?$_Ref_count_obj2@V?$Slot@V?$function@$$A6AXXZ@std@@U?$typelist@$$V@trait@sig@wpi@@@detail@sig@wpi@@@std@@@8 	 DATA
??_R0?AV?$bad_expected_access@W4SolverExitCondition@sleipnir@@@wpi@@@8 	 DATA
??_R0?AV?$basic_ios@DU?$char_traits@D@std@@@std@@@8 	 DATA
??_R0?AV?$basic_iostream@DU?$char_traits@D@std@@@std@@@8 	 DATA
??_R0?AV?$basic_istream@DU?$char_traits@D@std@@@std@@@8 	 DATA
??_R0?AV?$basic_ostream@DU?$char_traits@D@std@@@std@@@8 	 DATA
??_R0?AV?$basic_streambuf@DU?$char_traits@D@std@@@std@@@8 	 DATA
??_R0?AV?$basic_stringbuf@DU?$char_traits@D@std@@V?$allocator@D@2@@std@@@8 	 DATA
??_R0?AV?$basic_stringstream@DU?$char_traits@D@std@@V?$allocator@D@2@@std@@@8 	 DATA
??_R0?AVConnection@sig@wpi@@@8 	 DATA
??_R0?AVSlotState@detail@sig@wpi@@@8 	 DATA
??_R0?AV_Ref_count_base@std@@@8 	 DATA
??_R0?AVbad_alloc@std@@@8 	 DATA
??_R0?AVbad_array_new_length@std@@@8 	 DATA
??_R0?AVbad_optional_access@std@@@8 	 DATA
??_R0?AVdomain_error@std@@@8 	 DATA
??_R0?AVexception@std@@@8 	 DATA
??_R0?AVios_base@std@@@8 	 DATA
??_R0?AVlogic_error@std@@@8 	 DATA
??_R0?AVruntime_error@std@@@8 	 DATA
??_R0?AVsystem_error@std@@@8 	 DATA
??_R0P6AXIPEBDI0@Z@8 	 DATA
??_R0P6A_JXZ@8 	 DATA
??$?0$$V@PnpResult@photon@@QEAA@XZ
??$?0HX@Mat@cv@@QEAA@V?$initializer_list@H@std@@@Z
??$?0V?$Point3_@M@cv@@@_InputArray@cv@@QEAA@AEBV?$vector@V?$Point3_@M@cv@@V?$allocator@V?$Point3_@M@cv@@@std@@@std@@@Z
??$?0V?$Point_@M@cv@@@_InputArray@cv@@QEAA@AEBV?$vector@V?$Point_@M@cv@@V?$allocator@V?$Point_@M@cv@@@std@@@std@@@Z
??$?0V?$Point_@M@cv@@@_OutputArray@cv@@QEAA@AEAV?$vector@V?$Point_@M@cv@@V?$allocator@V?$Point_@M@cv@@@std@@@std@@@Z
??$?4UCallSlots@?$SignalBase@UNullMutex@detail@sig@wpi@@$$V@sig@wpi@@$0A@@?$function@$$A6AXXZ@std@@QEAAAEAV01@$$QEAUCallSlots@?$SignalBase@UNullMutex@detail@sig@wpi@@$$V@sig@wpi@@@Z
??$?4UCallSlots@?$SignalBase@UNullMutex@detail@sig@wpi@@AEAVBuffer@uv@4@_KAEBUsockaddr@@I@sig@wpi@@$0A@@?$function@$$A6AXAEAVBuffer@uv@wpi@@_KAEBUsockaddr@@I@Z@std@@QEAAAEAV01@$$QEAUCallSlots@?$SignalBase@UNullMutex@detail@sig@wpi@@AEAVBuffer@uv@4@_KAEBUsockaddr@@I@sig@wpi@@@Z
??$?4V?$Slot@P8TimeSyncClient@tsp@wpi@@EAAXAEAVBuffer@uv@3@_KAEBUsockaddr@@I@ZQEAV123@U?$typelist@AEAVBuffer@uv@wpi@@_KAEBUsockaddr@@I@trait@sig@3@@detail@sig@wpi@@$0A@@?$shared_ptr@V?$SlotBase@AEAVBuffer@uv@wpi@@_KAEBUsockaddr@@I@detail@sig@wpi@@@std@@QEAAAEAV01@AEBV?$shared_ptr@V?$Slot@P8TimeSyncClient@tsp@wpi@@EAAXAEAVBuffer@uv@3@_KAEBUsockaddr@@I@ZQEAV123@U?$typelist@AEAVBuffer@uv@wpi@@_KAEBUsockaddr@@I@trait@sig@3@@detail@sig@wpi@@@1@@Z
??$?4V?$Slot@P8TimeSyncClient@tsp@wpi@@EAAXXZPEAV123@U?$typelist@$$V@trait@sig@3@@detail@sig@wpi@@$0A@@?$shared_ptr@V?$SlotBase@$$V@detail@sig@wpi@@@std@@QEAAAEAV01@AEBV?$shared_ptr@V?$Slot@P8TimeSyncClient@tsp@wpi@@EAAXXZPEAV123@U?$typelist@$$V@trait@sig@3@@detail@sig@wpi@@@1@@Z
??$?4V?$Slot@P8TimeSyncServer@tsp@wpi@@EAAXAEAVBuffer@uv@3@_KAEBUsockaddr@@I@ZQEAV123@U?$typelist@AEAVBuffer@uv@wpi@@_KAEBUsockaddr@@I@trait@sig@3@@detail@sig@wpi@@$0A@@?$shared_ptr@V?$SlotBase@AEAVBuffer@uv@wpi@@_KAEBUsockaddr@@I@detail@sig@wpi@@@std@@QEAAAEAV01@AEBV?$shared_ptr@V?$Slot@P8TimeSyncServer@tsp@wpi@@EAAXAEAVBuffer@uv@3@_KAEBUsockaddr@@I@ZQEAV123@U?$typelist@AEAVBuffer@uv@wpi@@_KAEBUsockaddr@@I@trait@sig@3@@detail@sig@wpi@@@1@@Z
??$?6DU?$char_traits@D@std@@V?$allocator@D@1@@std@@YAAEAV?$basic_ostream@DU?$char_traits@D@std@@@0@AEAV10@AEBV?$basic_string@DU?$char_traits@D@std@@V?$allocator@D@2@@0@@Z
??$?6U?$char_traits@D@std@@@std@@YAAEAV?$basic_ostream@DU?$char_traits@D@std@@@0@AEAV10@PEBD@Z
??$?6V?$Matrix@N$02$02$0A@$02$02@Eigen@@@Eigen@@YAAEAV?$basic_ostream@DU?$char_traits@D@std@@@std@@AEAV12@AEBV?$DenseBase@V?$Matrix@N$02$02$0A@$02$02@Eigen@@@0@@Z
??$?8$$A6AXIPEBDI0@Z@std@@YA_NAEBV?$function@$$A6AXIPEBDI0@Z@0@$$T@Z
??$?BN@?$Vec@M$01@cv@@QEBA?AV?$Vec@N$01@1@XZ
??$?DV?$Block@V?$Matrix@N$02$00$0A@$02$00@Eigen@@$0?0$00$0A@@Eigen@@@?$MatrixBase@V?$Block@V?$Matrix@N$02$02$0A@$02$02@Eigen@@$00$0?0$0A@@Eigen@@@Eigen@@QEBA?BV?$Product@V?$Block@V?$Matrix@N$02$02$0A@$02$02@Eigen@@$00$0?0$0A@@Eigen@@V?$Block@V?$Matrix@N$02$00$0A@$02$00@Eigen@@$0?0$00$0A@@2@$0A@@1@AEBV?$MatrixBase@V?$Block@V?$Matrix@N$02$00$0A@$02$00@Eigen@@$0?0$00$0A@@Eigen@@@1@@Z
??$?DV?$Block@V?$Matrix@N$02$00$0A@$02$00@Eigen@@$0?0$00$0A@@Eigen@@@?$MatrixBase@V?$Block@V?$Matrix@N$02$02$0A@$02$02@Eigen@@$0?0$0?0$0A@@Eigen@@@Eigen@@QEBA?BV?$Product@V?$Block@V?$Matrix@N$02$02$0A@$02$02@Eigen@@$0?0$0?0$0A@@Eigen@@V?$Block@V?$Matrix@N$02$00$0A@$02$00@Eigen@@$0?0$00$0A@@2@$0A@@1@AEBV?$MatrixBase@V?$Block@V?$Matrix@N$02$00$0A@$02$00@Eigen@@$0?0$00$0A@@Eigen@@@1@@Z
??$?DV?$Matrix@N$02$02$0A@$02$02@Eigen@@@?$MatrixBase@V?$Matrix@N$02$02$0A@$02$02@Eigen@@@Eigen@@QEBA?BV?$Product@V?$Matrix@N$02$02$0A@$02$02@Eigen@@V12@$0A@@1@AEBV01@@Z
??$?DV?$Matrix@N$03$03$0A@$03$03@Eigen@@@?$MatrixBase@V?$Matrix@N$03$03$0A@$03$03@Eigen@@@Eigen@@QEBA?BV?$Product@V?$Matrix@N$03$03$0A@$03$03@Eigen@@V12@$0A@@1@AEBV01@@Z
??$?DV?$Transpose@$$CBV?$Matrix@N$02$02$0A@$02$02@Eigen@@@Eigen@@@?$MatrixBase@V?$Matrix@N$02$02$0A@$02$02@Eigen@@@Eigen@@QEBA?BV?$Product@V?$Matrix@N$02$02$0A@$02$02@Eigen@@V?$Transpose@$$CBV?$Matrix@N$02$02$0A@$02$02@Eigen@@@2@$0A@@1@AEBV?$MatrixBase@V?$Transpose@$$CBV?$Matrix@N$02$02$0A@$02$02@Eigen@@@Eigen@@@1@@Z
??$?DV?$Transpositions@$02$02H@Eigen@@V?$CwiseUnaryOp@U?$scalar_opposite_op@N@internal@Eigen@@$$CBV?$Matrix@N$02$00$0A@$02$00@3@@1@@Eigen@@YA?BV?$Product@V?$Transpositions@$02$02H@Eigen@@V?$CwiseUnaryOp@U?$scalar_opposite_op@N@internal@Eigen@@$$CBV?$Matrix@N$02$00$0A@$02$00@3@@2@$01@0@AEBV?$TranspositionsBase@V?$Transpositions@$02$02H@Eigen@@@0@AEBV?$MatrixBase@V?$CwiseUnaryOp@U?$scalar_opposite_op@N@internal@Eigen@@$$CBV?$Matrix@N$02$00$0A@$02$00@3@@Eigen@@@0@@Z
??$?R$$V@CallSlots@?$SignalBase@UNullMutex@detail@sig@wpi@@$$V@sig@wpi@@QEAAXXZ
??$?RAEAVBuffer@uv@wpi@@_KAEBUsockaddr@@I@CallSlots@?$SignalBase@UNullMutex@detail@sig@wpi@@AEAVBuffer@uv@4@_KAEBUsockaddr@@I@sig@wpi@@QEAAXAEAVBuffer@uv@3@$$QEA_KAEBUsockaddr@@$$QEAI@Z
??$?RV?$Matrix@N$02$02$0A@$02$02@Eigen@@@<lambda_1>@?1???0Rotation3d@frc@@QEAA@AEBV?$Matrix@N$02$02$0A@$02$02@Eigen@@@Z@QEBA?AVQuaternion@2@0@Z
??$NullaryExpr@U?$scalar_constant_op@N@internal@Eigen@@@?$DenseBase@V?$Array@N$02$00$0A@$02$00@Eigen@@@Eigen@@SA?BV?$CwiseNullaryOp@U?$scalar_constant_op@N@internal@Eigen@@V?$Array@N$02$00$0A@$02$00@3@@1@_J0AEBU?$scalar_constant_op@N@internal@1@@Z
??$NullaryExpr@U?$scalar_constant_op@N@internal@Eigen@@@?$DenseBase@V?$Array@N$0?0$00$0A@$02$00@Eigen@@@Eigen@@SA?BV?$CwiseNullaryOp@U?$scalar_constant_op@N@internal@Eigen@@V?$Array@N$0?0$00$0A@$02$00@3@@1@_J0AEBU?$scalar_constant_op@N@internal@1@@Z
??$NullaryExpr@U?$scalar_constant_op@N@internal@Eigen@@@?$DenseBase@V?$Block@V?$Matrix@N$02$00$0A@$02$00@Eigen@@$00$00$0A@@Eigen@@@Eigen@@SA?BV?$CwiseNullaryOp@U?$scalar_constant_op@N@internal@Eigen@@V?$Matrix@N$00$00$0A@$00$00@3@@1@_J0AEBU?$scalar_constant_op@N@internal@1@@Z
??$NullaryExpr@U?$scalar_constant_op@N@internal@Eigen@@@?$DenseBase@V?$Matrix@N$00$00$0A@$00$00@Eigen@@@Eigen@@SA?BV?$CwiseNullaryOp@U?$scalar_constant_op@N@internal@Eigen@@V?$Matrix@N$00$00$0A@$00$00@3@@1@_J0AEBU?$scalar_constant_op@N@internal@1@@Z
??$NullaryExpr@U?$scalar_constant_op@N@internal@Eigen@@@?$DenseBase@V?$Matrix@N$0?0$00$0A@$02$00@Eigen@@@Eigen@@SA?BV?$CwiseNullaryOp@U?$scalar_constant_op@N@internal@Eigen@@V?$Matrix@N$0?0$00$0A@$02$00@3@@1@_J0AEBU?$scalar_constant_op@N@internal@1@@Z
??$NullaryExpr@U?$scalar_identity_op@N@internal@Eigen@@@?$DenseBase@V?$Matrix@N$02$02$0A@$02$02@Eigen@@@Eigen@@SA?BV?$CwiseNullaryOp@U?$scalar_identity_op@N@internal@Eigen@@V?$Matrix@N$02$02$0A@$02$02@3@@1@_J0AEBU?$scalar_identity_op@N@internal@1@@Z
??$Pack@N$$V@Packet@photon@@QEAAXAEBN@Z
??$Pack@V?$vector@VTargetCorner@photon@@V?$allocator@VTargetCorner@photon@@@std@@@std@@@Packet@photon@@QEAAXAEBV?$vector@VTargetCorner@photon@@V?$allocator@VTargetCorner@photon@@@std@@@std@@@Z
??$Pack@_J$$V@Packet@photon@@QEAAXAEB_J@Z
??$_Allocate_manually_vector_aligned@U_Default_allocate_traits@std@@@std@@YAPEAX_K@Z
??$_Atomic_address_as@DU?$_Atomic_padded@_N@std@@@std@@YAPEDDAEBU?$_Atomic_padded@_N@0@@Z
??$_Construct@$00PEBD@?$basic_string@DU?$char_traits@D@std@@V?$allocator@D@2@@std@@AEAAXQEBD_K@Z
??$_Copy_backward_memmove@PEAVTargetCorner@photon@@PEAV12@@std@@YAPEAVTargetCorner@photon@@PEAV12@00@Z
??$_Copy_backward_memmove@PEAVTranslation3d@frc@@PEAV12@@std@@YAPEAVTranslation3d@frc@@PEAV12@00@Z
??$_Copy_backward_memmove@PEA_JPEA_J@std@@YAPEA_JPEA_J00@Z
??$_Copy_memmove@PEAEPEAE@std@@YAPEAEPEAE00@Z
??$_Copy_memmove@PEAFPEAF@std@@YAPEAFPEAF00@Z
??$_Copy_memmove@PEAUAprilTag@frc@@PEAU12@@std@@YAPEAUAprilTag@frc@@PEAU12@00@Z
??$_Copy_memmove@PEAV?$Point3_@M@cv@@PEAV12@@std@@YAPEAV?$Point3_@M@cv@@PEAV12@00@Z
??$_Copy_memmove@PEAV?$Point_@M@cv@@PEAV12@@std@@YAPEAV?$Point_@M@cv@@PEAV12@00@Z
??$_Copy_memmove@PEAVTargetCorner@photon@@PEAV12@@std@@YAPEAVTargetCorner@photon@@PEAV12@00@Z
??$_Copy_memmove@PEAVTranslation3d@frc@@PEAV12@@std@@YAPEAVTranslation3d@frc@@PEAV12@00@Z
??$_Copy_memmove@PEA_JPEA_J@std@@YAPEA_JPEA_J00@Z
??$_Copy_memmove@PEBNPEAN@std@@YAPEANPEBN0PEAN@Z
??$_Copy_memmove@PEBVTranslation3d@frc@@PEAV12@@std@@YAPEAVTranslation3d@frc@@PEBV12@0PEAV12@@Z
??$_Copy_memmove_n@PEAVTranslation3d@frc@@PEAV12@@std@@YAPEAVTranslation3d@frc@@PEAV12@_K0@Z
??$_Copy_memmove_tail@PEAE@std@@YAPEAEQEBDQEAE_K2@Z
??$_Copy_memmove_tail@PEAF@std@@YAPEAFQEBDQEAF_K2@Z
??$_Copy_memmove_tail@PEAN@std@@YAPEANQEBDQEAN_K2@Z
??$_Copy_memmove_tail@PEAUAprilTag@frc@@@std@@YAPEAUAprilTag@frc@@QEBDQEAU12@_K2@Z
??$_Copy_memmove_tail@PEAV?$Point3_@M@cv@@@std@@YAPEAV?$Point3_@M@cv@@QEBDQEAV12@_K2@Z
??$_Copy_memmove_tail@PEAV?$Point_@M@cv@@@std@@YAPEAV?$Point_@M@cv@@QEBDQEAV12@_K2@Z
??$_Copy_memmove_tail@PEAVTargetCorner@photon@@@std@@YAPEAVTargetCorner@photon@@QEBDQEAV12@_K2@Z
??$_Copy_memmove_tail@PEAVTranslation3d@frc@@@std@@YAPEAVTranslation3d@frc@@QEBDQEAV12@_K2@Z
??$_Copy_memmove_tail@PEA_J@std@@YAPEA_JQEBDQEA_J_K2@Z
??$_Emplace_reallocate@AEB_J@?$vector@_JV?$allocator@_J@std@@@std@@AEAAPEA_JQEA_JAEB_J@Z
??$_Emplace_reallocate@F@?$vector@FV?$allocator@F@std@@@std@@AEAAPEAFQEAF$$QEAF@Z
??$_Emplace_reallocate@UAprilTag@frc@@@?$vector@UAprilTag@frc@@V?$allocator@UAprilTag@frc@@@std@@@std@@AEAAPEAUAprilTag@frc@@QEAU23@$$QEAU23@@Z
??$_Emplace_reallocate@V?$Point3_@M@cv@@@?$vector@V?$Point3_@M@cv@@V?$allocator@V?$Point3_@M@cv@@@std@@@std@@AEAAPEAV?$Point3_@M@cv@@QEAV23@$$QEAV23@@Z
??$_Emplace_reallocate@V?$Point_@M@cv@@@?$vector@V?$Point_@M@cv@@V?$allocator@V?$Point_@M@cv@@@std@@@std@@AEAAPEAV?$Point_@M@cv@@QEAV23@$$QEAV23@@Z
??$_Emplace_reallocate@VPhotonTrackedTarget@photon@@@?$vector@VPhotonTrackedTarget@photon@@V?$allocator@VPhotonTrackedTarget@photon@@@std@@@std@@AEAAPEAVPhotonTrackedTarget@photon@@QEAV23@$$QEAV23@@Z
??$_Emplace_reallocate@VTargetCorner@photon@@@?$vector@VTargetCorner@photon@@V?$allocator@VTargetCorner@photon@@@std@@@std@@AEAAPEAVTargetCorner@photon@@QEAV23@$$QEAV23@@Z
??$_Emplace_reallocate@VTranslation3d@frc@@@?$vector@VTranslation3d@frc@@V?$allocator@VTranslation3d@frc@@@std@@@std@@AEAAPEAVTranslation3d@frc@@QEAV23@$$QEAV23@@Z
??$_Fill_zero_memset@PEA_J@std@@YAXPEA_J_K@Z
??$_Find_vectorized@_J_J@std@@YAPEA_JQEA_J0_J@Z
??$_Getvals@_W@?$time_get@DV?$istreambuf_iterator@DU?$char_traits@D@std@@@std@@@std@@IEAAX_WAEBV_Locinfo@1@@Z
??$_Getvals@_W@?$time_get@_WV?$istreambuf_iterator@_WU?$char_traits@_W@std@@@std@@@std@@IEAAX_WAEBV_Locinfo@1@@Z
??$_Insert_counted_range@PEAVTargetCorner@photon@@@?$vector@VTargetCorner@photon@@V?$allocator@VTargetCorner@photon@@@std@@@std@@AEAAXV?$_Vector_const_iterator@V?$_Vector_val@U?$_Simple_types@VTargetCorner@photon@@@std@@@std@@@1@PEAVTargetCorner@photon@@_K@Z
??$_Insert_counted_range@PEAVTranslation3d@frc@@@?$vector@VTranslation3d@frc@@V?$allocator@VTranslation3d@frc@@@std@@@std@@AEAAXV?$_Vector_const_iterator@V?$_Vector_val@U?$_Simple_types@VTranslation3d@frc@@@std@@@std@@@1@PEAVTranslation3d@frc@@_K@Z
??$_Insert_string@DU?$char_traits@D@std@@_K@std@@YAAEAV?$basic_ostream@DU?$char_traits@D@std@@@0@AEAV10@QEBD_K@Z
??$_Is_all_bits_zero@_J@std@@YA_NAEB_J@Z
??$_Move_unchecked@PEAVTargetCorner@photon@@PEAV12@@std@@YAPEAVTargetCorner@photon@@PEAV12@00@Z
??$_Move_unchecked@PEAVTranslation3d@frc@@PEAV12@@std@@YAPEAVTranslation3d@frc@@PEAV12@00@Z
??$_Reallocate_grow_by@V<lambda_1>@?1??push_back@?$basic_string@DU?$char_traits@D@std@@V?$allocator@D@2@@std@@QEAAXD@Z@D@?$basic_string@DU?$char_traits@D@std@@V?$allocator@D@2@@std@@AEAAAEAV01@_KV<lambda_1>@?1??push_back@01@QEAAXD@Z@D@Z
??$_Resize_reallocate@U_Value_init_tag@std@@@?$vector@EV?$allocator@E@std@@@std@@AEAAX_KAEBU_Value_init_tag@1@@Z
??$_Test_callable@$$A6AXIPEBDI0@Z@std@@YA_NA6AXIPEBDI0@Z@Z
??$_Test_callable@$$A6A_JXZ@std@@YA_NA6A_JXZ@Z
??$_Test_callable@UCallSlots@?$SignalBase@UNullMutex@detail@sig@wpi@@$$V@sig@wpi@@@std@@YA_NAEBUCallSlots@?$SignalBase@UNullMutex@detail@sig@wpi@@$$V@sig@wpi@@@Z
??$_Test_callable@UCallSlots@?$SignalBase@UNullMutex@detail@sig@wpi@@AEAVBuffer@uv@4@_KAEBUsockaddr@@I@sig@wpi@@@std@@YA_NAEBUCallSlots@?$SignalBase@UNullMutex@detail@sig@wpi@@AEAVBuffer@uv@4@_KAEBUsockaddr@@I@sig@wpi@@@Z
??$_Uninitialized_move@PEAVTargetCorner@photon@@V?$allocator@VTargetCorner@photon@@@std@@@std@@YAPEAVTargetCorner@photon@@QEAV12@0PEAV12@AEAV?$allocator@VTargetCorner@photon@@@0@@Z
??$_Uninitialized_move@PEAVTranslation3d@frc@@V?$allocator@VTranslation3d@frc@@@std@@@std@@YAPEAVTranslation3d@frc@@QEAV12@0PEAV12@AEAV?$allocator@VTranslation3d@frc@@@0@@Z
??$_Zero_range@PEAE@std@@YAPEAEQEAE0@Z
??$__builtin_array_init_helper@V?$value@Vcontext@v11@fmt@@@detail@v11@fmt@@@@YAXPEAV?$value@Vcontext@v11@fmt@@@detail@v11@fmt@@_K@Z
??$_solve_impl@V?$CwiseUnaryOp@U?$scalar_opposite_op@N@internal@Eigen@@$$CBV?$Matrix@N$02$00$0A@$02$00@3@@Eigen@@V?$Matrix@N$02$00$0A@$02$00@2@@?$LDLT@V?$Matrix@N$02$02$0A@$02$02@Eigen@@$00@Eigen@@QEBAXAEBV?$CwiseUnaryOp@U?$scalar_opposite_op@N@internal@Eigen@@$$CBV?$Matrix@N$02$00$0A@$02$00@3@@1@AEAV?$Matrix@N$02$00$0A@$02$00@1@@Z
??$_solve_impl_transposed@$00V?$CwiseUnaryOp@U?$scalar_opposite_op@N@internal@Eigen@@$$CBV?$Matrix@N$02$00$0A@$02$00@3@@Eigen@@V?$Matrix@N$02$00$0A@$02$00@2@@?$LDLT@V?$Matrix@N$02$02$0A@$02$02@Eigen@@$00@Eigen@@QEBAXAEBV?$CwiseUnaryOp@U?$scalar_opposite_op@N@internal@Eigen@@$$CBV?$Matrix@N$02$00$0A@$02$00@3@@1@AEAV?$Matrix@N$02$00$0A@$02$00@1@@Z
??$add_slot@V?$shared_ptr@V?$Slot@P8TimeSyncClient@tsp@wpi@@EAAXAEAVBuffer@uv@3@_KAEBUsockaddr@@I@ZQEAV123@U?$typelist@AEAVBuffer@uv@wpi@@_KAEBUsockaddr@@I@trait@sig@3@@detail@sig@wpi@@@std@@@?$SignalBase@UNullMutex@detail@sig@wpi@@AEAVBuffer@uv@4@_KAEBUsockaddr@@I@sig@wpi@@AEAAXAEAV?$shared_ptr@V?$Slot@P8TimeSyncClient@tsp@wpi@@EAAXAEAVBuffer@uv@3@_KAEBUsockaddr@@I@ZQEAV123@U?$typelist@AEAVBuffer@uv@wpi@@_KAEBUsockaddr@@I@trait@sig@3@@detail@sig@wpi@@@std@@@Z
??$add_slot@V?$shared_ptr@V?$Slot@P8TimeSyncClient@tsp@wpi@@EAAXXZPEAV123@U?$typelist@$$V@trait@sig@3@@detail@sig@wpi@@@std@@@?$SignalBase@UNullMutex@detail@sig@wpi@@$$V@sig@wpi@@AEAAXAEAV?$shared_ptr@V?$Slot@P8TimeSyncClient@tsp@wpi@@EAAXXZPEAV123@U?$typelist@$$V@trait@sig@3@@detail@sig@wpi@@@std@@@Z
??$add_slot@V?$shared_ptr@V?$Slot@P8TimeSyncServer@tsp@wpi@@EAAXAEAVBuffer@uv@3@_KAEBUsockaddr@@I@ZQEAV123@U?$typelist@AEAVBuffer@uv@wpi@@_KAEBUsockaddr@@I@trait@sig@3@@detail@sig@wpi@@@std@@@?$SignalBase@UNullMutex@detail@sig@wpi@@AEAVBuffer@uv@4@_KAEBUsockaddr@@I@sig@wpi@@AEAAXAEAV?$shared_ptr@V?$Slot@P8TimeSyncServer@tsp@wpi@@EAAXAEAVBuffer@uv@3@_KAEBUsockaddr@@I@ZQEAV123@U?$typelist@AEAVBuffer@uv@wpi@@_KAEBUsockaddr@@I@trait@sig@3@@detail@sig@wpi@@@std@@@Z
??$append@PEBVBuffer@uv@wpi@@X@?$SmallVectorImpl@VBuffer@uv@wpi@@@wpi@@QEAAXPEBVBuffer@uv@1@0@Z
??$at@M@Mat@cv@@QEAAAEAMV?$Point_@H@1@@Z
??$at@V?$Vec@M$01@cv@@@Mat@cv@@QEAAAEAV?$Vec@M$01@1@V?$Point_@H@1@@Z
??$at@V?$Vec@M$02@cv@@@Mat@cv@@QEAAAEAV?$Vec@M$02@1@V?$Point_@H@1@@Z
??$compute@V?$Matrix@N$02$02$0A@$02$02@Eigen@@@?$LDLT@V?$Matrix@N$02$02$0A@$02$02@Eigen@@$00@Eigen@@QEAAAEAV01@AEBU?$EigenBase@V?$Matrix@N$02$02$0A@$02$02@Eigen@@@1@@Z
??$conditional_aligned_new_auto@N$00@internal@Eigen@@YAPEAN_K@Z
??$endl@DU?$char_traits@D@std@@@std@@YAAEAV?$basic_ostream@DU?$char_traits@D@std@@@0@AEAV10@@Z
??$floor_check@N@internal@gcem@@YANN@Z
??$get_runtime_value@_J@internal@Eigen@@YA_JAEB_J@Z
??$insert_sorted@_J@wpi@@YA?AV?$_Vector_iterator@V?$_Vector_val@U?$_Simple_types@_J@std@@@std@@@std@@AEAV?$vector@_JV?$allocator@_J@std@@@2@AEB_J@Z
??$is_same_dense@V?$Matrix@N$02$00$0A@$02$00@Eigen@@V12@@internal@Eigen@@YA_NAEBV?$Matrix@N$02$00$0A@$02$00@1@0PEAX@Z
??$is_same_dense@V?$Matrix@N$02$00$0A@$02$00@Eigen@@V?$CwiseUnaryOp@U?$scalar_opposite_op@N@internal@Eigen@@$$CBV?$Matrix@N$02$00$0A@$02$00@3@@2@@internal@Eigen@@YA_NAEBV?$Matrix@N$02$00$0A@$02$00@1@AEBV?$CwiseUnaryOp@U?$scalar_opposite_op@N@internal@Eigen@@$$CBV?$Matrix@N$02$00$0A@$02$00@3@@1@PEAX@Z
??$isfinite@N@numext@Eigen@@YA_NAEBN@Z
??$isfinite_impl@N@internal@Eigen@@YA_NAEBN@Z
??$isnan@N@numext@Eigen@@YA_NAEBN@Z
??$isnan_impl@N@internal@Eigen@@YA_NAEBN@Z
??$lazyProduct@V?$Block@V?$Matrix@N$02$00$0A@$02$00@Eigen@@$0?0$00$0A@@Eigen@@@?$MatrixBase@V?$Block@V?$Matrix@N$02$02$0A@$02$02@Eigen@@$0?0$0?0$0A@@Eigen@@@Eigen@@QEBA?BV?$Product@V?$Block@V?$Matrix@N$02$02$0A@$02$02@Eigen@@$0?0$0?0$0A@@Eigen@@V?$Block@V?$Matrix@N$02$00$0A@$02$00@Eigen@@$0?0$00$0A@@2@$00@1@AEBV?$MatrixBase@V?$Block@V?$Matrix@N$02$00$0A@$02$00@Eigen@@$0?0$00$0A@@Eigen@@@1@@Z
??$lazyProduct@V?$Matrix@N$02$02$0A@$02$02@Eigen@@@?$MatrixBase@V?$Matrix@N$02$02$0A@$02$02@Eigen@@@Eigen@@QEBA?BV?$Product@V?$Matrix@N$02$02$0A@$02$02@Eigen@@V12@$00@1@AEBV01@@Z
??$lazyProduct@V?$Matrix@N$03$03$0A@$03$03@Eigen@@@?$MatrixBase@V?$Matrix@N$03$03$0A@$03$03@Eigen@@@Eigen@@QEBA?BV?$Product@V?$Matrix@N$03$03$0A@$03$03@Eigen@@V12@$00@1@AEBV01@@Z
??$lazyProduct@V?$Transpose@$$CBV?$Matrix@N$02$02$0A@$02$02@Eigen@@@Eigen@@@?$MatrixBase@V?$Matrix@N$02$02$0A@$02$02@Eigen@@@Eigen@@QEBA?BV?$Product@V?$Matrix@N$02$02$0A@$02$02@Eigen@@V?$Transpose@$$CBV?$Matrix@N$02$02$0A@$02$02@Eigen@@@2@$00@1@AEBV?$MatrixBase@V?$Transpose@$$CBV?$Matrix@N$02$02$0A@$02$02@Eigen@@@Eigen@@@1@@Z
??$lpNorm@$00@?$MatrixBase@V?$Block@V?$Block@V?$Matrix@N$02$02$0A@$02$02@Eigen@@$00$02$0A@@Eigen@@$00$0?0$0A@@Eigen@@@Eigen@@QEBANXZ
??$lpNorm@$00@?$MatrixBase@V?$Block@V?$Block@V?$Matrix@N$02$02$0A@$02$02@Eigen@@$02$00$00@Eigen@@$0?0$00$0A@@Eigen@@@Eigen@@QEBANXZ
??$lpNorm@$0?0@?$MatrixBase@V?$Matrix@N$02$00$0A@$02$00@Eigen@@@Eigen@@QEBANXZ
??$maxCoeff@$0A@@?$DenseBase@V?$CwiseUnaryOp@U?$scalar_abs_op@N@internal@Eigen@@$$CBV?$Matrix@N$02$00$0A@$02$00@3@@Eigen@@@Eigen@@QEBANXZ
??$maxCoeff@$0A@_J@?$DenseBase@V?$CwiseUnaryOp@U?$scalar_abs_op@N@internal@Eigen@@$$CBV?$Block@V?$Diagonal@V?$Matrix@N$02$02$0A@$02$02@Eigen@@$0A@@Eigen@@$0?0$00$0A@@3@@Eigen@@@Eigen@@QEBANPEA_J@Z
??$pow@NI$0A@@@YANNI@Z
??$pow_integral_compute@NH@internal@gcem@@YANNH@Z
??$pow_integral_compute_recur@NH@internal@gcem@@YANNNH@Z
??$pow_integral_compute_recur@NI@internal@gcem@@YANNNI@Z
??$predux_max@$0A@U__m128d@@@internal@Eigen@@YANAEBU__m128d@@@Z
??$print_matrix@V?$Matrix@N$02$02$0A@$02$02@Eigen@@@internal@Eigen@@YAAEAV?$basic_ostream@DU?$char_traits@D@std@@@std@@AEAV23@AEBV?$Matrix@N$02$02$0A@$02$02@1@AEBUIOFormat@1@@Z
??$println@$$V@wpi@@YAXU?$fstring@$$V@v11@fmt@@@Z
??$redux@U?$scalar_max_op@NN$0A@@internal@Eigen@@@?$DenseBase@V?$CwiseUnaryOp@U?$scalar_abs_op@N@internal@Eigen@@$$CBV?$Matrix@N$02$00$0A@$02$00@3@@Eigen@@@Eigen@@QEBANAEBU?$scalar_max_op@NN$0A@@internal@1@@Z
??$redux@U?$scalar_sum_op@NN@internal@Eigen@@@?$DenseBase@V?$CwiseBinaryOp@U?$scalar_product_op@NN@internal@Eigen@@$$CBV?$Transpose@$$CBV?$Block@$$CBV?$Block@$$CBV?$Matrix@N$02$02$0A@$02$02@Eigen@@$00$02$0A@@Eigen@@$00$00$0A@@Eigen@@@3@$$CBV?$Block@V?$Matrix@N$02$00$0A@$02$00@Eigen@@$00$00$0A@@3@@Eigen@@@Eigen@@QEBANAEBU?$scalar_sum_op@NN@internal@1@@Z
??$redux@U?$scalar_sum_op@NN@internal@Eigen@@@?$DenseBase@V?$CwiseBinaryOp@U?$scalar_product_op@NN@internal@Eigen@@$$CBV?$Transpose@$$CBV?$Block@$$CBV?$Block@$$CBV?$Matrix@N$02$02$0A@$02$02@Eigen@@$00$02$0A@@Eigen@@$00$01$0A@@Eigen@@@3@$$CBV?$Block@V?$Matrix@N$02$00$0A@$02$00@Eigen@@$01$00$0A@@3@@Eigen@@@Eigen@@QEBANAEBU?$scalar_sum_op@NN@internal@1@@Z
??$redux@U?$scalar_sum_op@NN@internal@Eigen@@@?$DenseBase@V?$CwiseBinaryOp@U?$scalar_product_op@NN@internal@Eigen@@$$CBV?$Transpose@$$CBV?$Block@$$CBV?$Block@$$CBV?$Matrix@N$02$02$0A@$02$02@Eigen@@$00$02$0A@@Eigen@@$00$0A@$0A@@Eigen@@@3@$$CBV?$Block@V?$Matrix@N$02$00$0A@$02$00@Eigen@@$0A@$00$0A@@3@@Eigen@@@Eigen@@QEBANAEBU?$scalar_sum_op@NN@internal@1@@Z
??$redux@U?$scalar_sum_op@NN@internal@Eigen@@@?$DenseBase@V?$CwiseBinaryOp@U?$scalar_product_op@NN@internal@Eigen@@$$CBV?$Transpose@$$CBV?$Block@$$CBV?$Block@$$CBV?$Transpose@$$CBV?$Matrix@N$02$02$0A@$02$02@Eigen@@@Eigen@@$00$02$00@Eigen@@$00$00$0A@@Eigen@@@3@$$CBV?$Block@V?$Matrix@N$02$00$0A@$02$00@Eigen@@$00$00$0A@@3@@Eigen@@@Eigen@@QEBANAEBU?$scalar_sum_op@NN@internal@1@@Z
??$redux@U?$scalar_sum_op@NN@internal@Eigen@@@?$DenseBase@V?$CwiseBinaryOp@U?$scalar_product_op@NN@internal@Eigen@@$$CBV?$Transpose@$$CBV?$Block@$$CBV?$Block@$$CBV?$Transpose@$$CBV?$Matrix@N$02$02$0A@$02$02@Eigen@@@Eigen@@$00$02$00@Eigen@@$00$01$0A@@Eigen@@@3@$$CBV?$Block@V?$Matrix@N$02$00$0A@$02$00@Eigen@@$01$00$0A@@3@@Eigen@@@Eigen@@QEBANAEBU?$scalar_sum_op@NN@internal@1@@Z
??$redux@U?$scalar_sum_op@NN@internal@Eigen@@@?$DenseBase@V?$CwiseBinaryOp@U?$scalar_product_op@NN@internal@Eigen@@$$CBV?$Transpose@$$CBV?$Block@$$CBV?$Block@$$CBV?$Transpose@$$CBV?$Matrix@N$02$02$0A@$02$02@Eigen@@@Eigen@@$00$02$00@Eigen@@$00$0A@$0A@@Eigen@@@3@$$CBV?$Block@V?$Matrix@N$02$00$0A@$02$00@Eigen@@$0A@$00$0A@@3@@Eigen@@@Eigen@@QEBANAEBU?$scalar_sum_op@NN@internal@1@@Z
??$redux@U?$scalar_sum_op@NN@internal@Eigen@@@?$DenseBase@V?$CwiseBinaryOp@U?$scalar_product_op@NN@internal@Eigen@@$$CBV?$Transpose@$$CBV?$Block@$$CBV?$Block@V?$Matrix@N$02$02$0A@$02$02@Eigen@@$0?0$0?0$0A@@Eigen@@$00$0?0$0A@@Eigen@@@3@$$CBV?$Block@$$CBV?$Block@V?$Matrix@N$02$00$0A@$02$00@Eigen@@$0?0$00$0A@@Eigen@@$0?0$00$00@3@@Eigen@@@Eigen@@QEBANAEBU?$scalar_sum_op@NN@internal@1@@Z
??$redux@U?$scalar_sum_op@NN@internal@Eigen@@@?$DenseBase@V?$CwiseBinaryOp@U?$scalar_product_op@NN@internal@Eigen@@$$CBV?$Transpose@$$CBV?$Block@$$CBV?$Matrix@N$02$02$0A@$02$02@Eigen@@$00$02$0A@@Eigen@@@3@$$CBV?$Block@$$CBV?$Matrix@N$02$02$0A@$02$02@Eigen@@$02$00$00@3@@Eigen@@@Eigen@@QEBANAEBU?$scalar_sum_op@NN@internal@1@@Z
??$redux@U?$scalar_sum_op@NN@internal@Eigen@@@?$DenseBase@V?$CwiseBinaryOp@U?$scalar_product_op@NN@internal@Eigen@@$$CBV?$Transpose@$$CBV?$Block@$$CBV?$Matrix@N$02$02$0A@$02$02@Eigen@@$00$02$0A@@Eigen@@@3@$$CBV?$Block@$$CBV?$Transpose@$$CBV?$Matrix@N$02$02$0A@$02$02@Eigen@@@Eigen@@$02$00$0A@@3@@Eigen@@@Eigen@@QEBANAEBU?$scalar_sum_op@NN@internal@1@@Z
??$redux@U?$scalar_sum_op@NN@internal@Eigen@@@?$DenseBase@V?$CwiseUnaryOp@U?$scalar_abs_op@N@internal@Eigen@@$$CBV?$Block@V?$Block@V?$Matrix@N$02$02$0A@$02$02@Eigen@@$00$02$0A@@Eigen@@$00$0?0$0A@@3@@Eigen@@@Eigen@@QEBANAEBU?$scalar_sum_op@NN@internal@1@@Z
??$redux@U?$scalar_sum_op@NN@internal@Eigen@@@?$DenseBase@V?$CwiseUnaryOp@U?$scalar_abs_op@N@internal@Eigen@@$$CBV?$Block@V?$Block@V?$Matrix@N$02$02$0A@$02$02@Eigen@@$02$00$00@Eigen@@$0?0$00$0A@@3@@Eigen@@@Eigen@@QEBANAEBU?$scalar_sum_op@NN@internal@1@@Z
??$redux@U?$scalar_sum_op@NN@internal@Eigen@@@?$DenseBase@V?$CwiseUnaryOp@U?$squared_norm_functor@N$0A@@internal@Eigen@@$$CBV?$CwiseBinaryOp@U?$scalar_difference_op@NN@internal@Eigen@@$$CBV?$Product@V?$Matrix@N$02$02$0A@$02$02@Eigen@@V?$Transpose@$$CBV?$Matrix@N$02$02$0A@$02$02@Eigen@@@2@$0A@@3@$$CBV?$CwiseNullaryOp@U?$scalar_identity_op@N@internal@Eigen@@V?$Matrix@N$02$02$0A@$02$02@3@@3@@3@@Eigen@@@Eigen@@QEBANAEBU?$scalar_sum_op@NN@internal@1@@Z
??$redux@U?$scalar_sum_op@NN@internal@Eigen@@@?$DenseBase@V?$CwiseUnaryOp@U?$squared_norm_functor@N$0A@@internal@Eigen@@$$CBV?$Matrix@N$02$00$0A@$02$00@3@@Eigen@@@Eigen@@QEBANAEBU?$scalar_sum_op@NN@internal@1@@Z
??$redux@U?$scalar_sum_op@NN@internal@Eigen@@@?$DenseBase@V?$CwiseUnaryOp@U?$squared_norm_functor@N$0A@@internal@Eigen@@$$CBV?$Matrix@N$02$02$0A@$02$02@3@@Eigen@@@Eigen@@QEBANAEBU?$scalar_sum_op@NN@internal@1@@Z
??$run@U__m128d@@@?$redux_vec_linear_unroller@U?$scalar_sum_op@NN@internal@Eigen@@V?$redux_evaluator@V?$CwiseBinaryOp@U?$scalar_product_op@NN@internal@Eigen@@$$CBV?$Transpose@$$CBV?$Block@$$CBV?$Block@$$CBV?$Transpose@$$CBV?$Matrix@N$02$02$0A@$02$02@Eigen@@@Eigen@@$00$02$00@Eigen@@$00$00$0A@@Eigen@@@3@$$CBV?$Block@V?$Matrix@N$02$00$0A@$02$00@Eigen@@$00$00$0A@@3@@Eigen@@@23@$0A@$0A@@internal@Eigen@@SA?AU__m128d@@AEBV?$redux_evaluator@V?$CwiseBinaryOp@U?$scalar_product_op@NN@internal@Eigen@@$$CBV?$Transpose@$$CBV?$Block@$$CBV?$Block@$$CBV?$Transpose@$$CBV?$Matrix@N$02$02$0A@$02$02@Eigen@@@Eigen@@$00$02$00@Eigen@@$00$00$0A@@Eigen@@@3@$$CBV?$Block@V?$Matrix@N$02$00$0A@$02$00@Eigen@@$00$00$0A@@3@@Eigen@@@12@AEBU?$scalar_sum_op@NN@12@@Z
??$run@U__m128d@@@?$redux_vec_linear_unroller@U?$scalar_sum_op@NN@internal@Eigen@@V?$redux_evaluator@V?$CwiseBinaryOp@U?$scalar_product_op@NN@internal@Eigen@@$$CBV?$Transpose@$$CBV?$Block@$$CBV?$Block@$$CBV?$Transpose@$$CBV?$Matrix@N$02$02$0A@$02$02@Eigen@@@Eigen@@$00$02$00@Eigen@@$00$0A@$0A@@Eigen@@@3@$$CBV?$Block@V?$Matrix@N$02$00$0A@$02$00@Eigen@@$0A@$00$0A@@3@@Eigen@@@23@$0A@$0A@@internal@Eigen@@SA?AU__m128d@@AEBV?$redux_evaluator@V?$CwiseBinaryOp@U?$scalar_product_op@NN@internal@Eigen@@$$CBV?$Transpose@$$CBV?$Block@$$CBV?$Block@$$CBV?$Transpose@$$CBV?$Matrix@N$02$02$0A@$02$02@Eigen@@@Eigen@@$00$02$00@Eigen@@$00$0A@$0A@@Eigen@@@3@$$CBV?$Block@V?$Matrix@N$02$00$0A@$02$00@Eigen@@$0A@$00$0A@@3@@Eigen@@@12@AEBU?$scalar_sum_op@NN@12@@Z
??$run@V?$CwiseUnaryOp@U?$scalar_abs_op@N@internal@Eigen@@$$CBV?$Block@V?$Block@V?$Matrix@N$02$02$0A@$02$02@Eigen@@$02$00$00@Eigen@@$0?0$00$0A@@3@@Eigen@@@?$redux_impl@U?$scalar_sum_op@NN@internal@Eigen@@V?$redux_evaluator@V?$CwiseUnaryOp@U?$scalar_abs_op@N@internal@Eigen@@$$CBV?$Block@V?$Block@V?$Matrix@N$02$02$0A@$02$02@Eigen@@$02$00$00@Eigen@@$0?0$00$0A@@3@@Eigen@@@23@$02$0A@@internal@Eigen@@SANAEBV?$redux_evaluator@V?$CwiseUnaryOp@U?$scalar_abs_op@N@internal@Eigen@@$$CBV?$Block@V?$Block@V?$Matrix@N$02$02$0A@$02$02@Eigen@@$02$00$00@Eigen@@$0?0$00$0A@@3@@Eigen@@@12@AEBU?$scalar_sum_op@NN@12@AEBV?$CwiseUnaryOp@U?$scalar_abs_op@N@internal@Eigen@@$$CBV?$Block@V?$Block@V?$Matrix@N$02$02$0A@$02$02@Eigen@@$02$00$00@Eigen@@$0?0$00$0A@@3@@2@@Z
??$run@V?$generic_dense_assignment_kernel@U?$evaluator@V?$Block@V?$Block@V?$Matrix@N$02$02$0A@$02$02@Eigen@@$02$00$00@Eigen@@$0?0$00$0A@@Eigen@@@internal@Eigen@@U123@U?$swap_assign_op@N@23@$0A@@internal@Eigen@@@?$unaligned_dense_assignment_loop@$0A@@internal@Eigen@@SAXAEAV?$generic_dense_assignment_kernel@U?$evaluator@V?$Block@V?$Block@V?$Matrix@N$02$02$0A@$02$02@Eigen@@$02$00$00@Eigen@@$0?0$00$0A@@Eigen@@@internal@Eigen@@U123@U?$swap_assign_op@N@23@$0A@@12@_J1@Z
??$run@V?$generic_dense_assignment_kernel@U?$evaluator@V?$Block@V?$Matrix@N$02$02$0A@$02$02@Eigen@@$0?0$00$0A@@Eigen@@@internal@Eigen@@U?$evaluator@V?$CwiseNullaryOp@U?$scalar_constant_op@N@internal@Eigen@@V?$Matrix@N$0?0$00$0A@$02$00@3@@Eigen@@@23@U?$div_assign_op@NN@23@$0A@@internal@Eigen@@@?$unaligned_dense_assignment_loop@$0A@@internal@Eigen@@SAXAEAV?$generic_dense_assignment_kernel@U?$evaluator@V?$Block@V?$Matrix@N$02$02$0A@$02$02@Eigen@@$0?0$00$0A@@Eigen@@@internal@Eigen@@U?$evaluator@V?$CwiseNullaryOp@U?$scalar_constant_op@N@internal@Eigen@@V?$Matrix@N$0?0$00$0A@$02$00@3@@Eigen@@@23@U?$div_assign_op@NN@23@$0A@@12@_J1@Z
??$run@V?$generic_dense_assignment_kernel@U?$evaluator@V?$Block@V?$Matrix@N$02$02$0A@$02$02@Eigen@@$0?0$00$0A@@Eigen@@@internal@Eigen@@U?$evaluator@V?$Product@V?$Block@V?$Matrix@N$02$02$0A@$02$02@Eigen@@$0?0$0?0$0A@@Eigen@@V?$Block@V?$Matrix@N$02$00$0A@$02$00@Eigen@@$0?0$00$0A@@2@$00@Eigen@@@23@U?$sub_assign_op@NN@23@$0A@@internal@Eigen@@@?$unaligned_dense_assignment_loop@$0A@@internal@Eigen@@SAXAEAV?$generic_dense_assignment_kernel@U?$evaluator@V?$Block@V?$Matrix@N$02$02$0A@$02$02@Eigen@@$0?0$00$0A@@Eigen@@@internal@Eigen@@U?$evaluator@V?$Product@V?$Block@V?$Matrix@N$02$02$0A@$02$02@Eigen@@$0?0$0?0$0A@@Eigen@@V?$Block@V?$Matrix@N$02$00$0A@$02$00@Eigen@@$0?0$00$0A@@2@$00@Eigen@@@23@U?$sub_assign_op@NN@23@$0A@@12@_J1@Z
??$smart_copy@N@internal@Eigen@@YAXPEBN0PEAN@Z
??$solveInPlace@$00V?$Matrix@N$02$00$0A@$02$00@Eigen@@@?$TriangularViewImpl@$$CBV?$Matrix@N$02$02$0A@$02$02@Eigen@@$04UDense@2@@Eigen@@QEBAXAEBV?$MatrixBase@V?$Matrix@N$02$00$0A@$02$00@Eigen@@@1@@Z
??$solveInPlace@$00V?$Matrix@N$02$00$0A@$02$00@Eigen@@@?$TriangularViewImpl@$$CBV?$Transpose@$$CBV?$Matrix@N$02$02$0A@$02$02@Eigen@@@Eigen@@$05UDense@2@@Eigen@@QEBAXAEBV?$MatrixBase@V?$Matrix@N$02$00$0A@$02$00@Eigen@@@1@@Z
??$sqrt_recur@N@internal@gcem@@YANNNH@Z
??$sqrt_simplify@N@internal@gcem@@YANNN@Z
??$tan_begin@N@internal@gcem@@YANNH@Z
??$tan_cf_recur@N@internal@gcem@@YANNHH@Z
??$unblocked@V?$Matrix@N$02$02$0A@$02$02@Eigen@@V?$Transpositions@$02$02H@2@V?$Matrix@N$02$00$0A@$02$00@2@@?$ldlt_inplace@$00@internal@Eigen@@SA_NAEAV?$Matrix@N$02$02$0A@$02$02@2@AEAV?$Transpositions@$02$02H@2@AEAV?$Matrix@N$02$00$0A@$02$00@2@AEAW4SignMatrix@12@@Z
??$visit@U?$minmax_coeff_visitor@V?$CwiseUnaryOp@U?$scalar_abs_op@N@internal@Eigen@@$$CBV?$Block@V?$Diagonal@V?$Matrix@N$02$02$0A@$02$02@Eigen@@$0A@@Eigen@@$0?0$00$0A@@3@@Eigen@@$0A@$0A@$0A@@internal@Eigen@@@?$DenseBase@V?$CwiseUnaryOp@U?$scalar_abs_op@N@internal@Eigen@@$$CBV?$Block@V?$Diagonal@V?$Matrix@N$02$02$0A@$02$02@Eigen@@$0A@@Eigen@@$0?0$00$0A@@3@@Eigen@@@Eigen@@QEBAXAEAU?$minmax_coeff_visitor@V?$CwiseUnaryOp@U?$scalar_abs_op@N@internal@Eigen@@$$CBV?$Block@V?$Diagonal@V?$Matrix@N$02$02$0A@$02$02@Eigen@@$0A@@Eigen@@$0?0$00$0A@@3@@Eigen@@$0A@$0A@$0A@@internal@1@@Z
??0?$CwiseNullaryOp@U?$scalar_constant_op@N@internal@Eigen@@V?$Array@N$02$00$0A@$02$00@3@@Eigen@@QEAA@_J0AEBU?$scalar_constant_op@N@internal@1@@Z
??0?$CwiseNullaryOp@U?$scalar_constant_op@N@internal@Eigen@@V?$Array@N$0?0$00$0A@$02$00@3@@Eigen@@QEAA@_J0AEBU?$scalar_constant_op@N@internal@1@@Z
??0?$CwiseNullaryOp@U?$scalar_constant_op@N@internal@Eigen@@V?$Matrix@N$00$00$0A@$00$00@3@@Eigen@@QEAA@_J0AEBU?$scalar_constant_op@N@internal@1@@Z
??0?$CwiseNullaryOp@U?$scalar_constant_op@N@internal@Eigen@@V?$Matrix@N$0?0$00$0A@$02$00@3@@Eigen@@QEAA@_J0AEBU?$scalar_constant_op@N@internal@1@@Z
??0?$CwiseNullaryOp@U?$scalar_identity_op@N@internal@Eigen@@V?$Matrix@N$02$02$0A@$02$02@3@@Eigen@@QEAA@_J0AEBU?$scalar_identity_op@N@internal@1@@Z
??0?$MapBase@V?$Block@V?$Block@V?$Matrix@N$02$02$0A@$02$02@Eigen@@$00$02$0A@@Eigen@@$00$0?0$0A@@Eigen@@$00@Eigen@@QEAA@PEAN_J1@Z
??0?$MapBase@V?$Block@V?$Block@V?$Matrix@N$02$02$0A@$02$02@Eigen@@$02$00$00@Eigen@@$0?0$00$0A@@Eigen@@$00@Eigen@@QEAA@PEAN_J1@Z
??0?$MapBase@V?$Block@V?$Diagonal@V?$Matrix@N$02$02$0A@$02$02@Eigen@@$0A@@Eigen@@$0?0$00$0A@@Eigen@@$00@Eigen@@QEAA@PEAN_J1@Z
??0?$MapBase@V?$Block@V?$Matrix@N$02$00$0A@$02$00@Eigen@@$00$00$0A@@Eigen@@$00@Eigen@@QEAA@PEAN_J1@Z
??0?$MapBase@V?$Block@V?$Matrix@N$02$00$0A@$02$00@Eigen@@$01$00$0A@@Eigen@@$00@Eigen@@QEAA@PEAN_J1@Z
??0?$MapBase@V?$Block@V?$Matrix@N$02$00$0A@$02$00@Eigen@@$0?0$00$0A@@Eigen@@$00@Eigen@@QEAA@PEAN_J1@Z
??0?$MapBase@V?$Block@V?$Matrix@N$02$02$0A@$02$02@Eigen@@$00$02$0A@@Eigen@@$00@Eigen@@QEAA@PEAN_J1@Z
??0?$MapBase@V?$Block@V?$Matrix@N$02$02$0A@$02$02@Eigen@@$02$00$00@Eigen@@$00@Eigen@@QEAA@PEAN_J1@Z
??0?$bad_expected_access@W4SolverExitCondition@sleipnir@@@wpi@@QEAA@AEBV01@@Z
??0?$basic_string@DU?$char_traits@D@std@@V?$allocator@D@2@@std@@QEAA@AEBV01@@Z
??0?$basic_string@DU?$char_traits@D@std@@V?$allocator@D@2@@std@@QEAA@QEBD@Z
??0?$vector@V?$Point_@M@cv@@V?$allocator@V?$Point_@M@cv@@@std@@@std@@QEAA@AEBV01@@Z
??0?$vector@VTargetCorner@photon@@V?$allocator@VTargetCorner@photon@@@std@@@std@@QEAA@AEBV01@@Z
??0?$vector@VTranslation3d@frc@@V?$allocator@VTranslation3d@frc@@@std@@@std@@QEAA@AEBV01@@Z
??0MultiTargetPNPResult@photon@@QEAA@AEBV01@@Z
??0Packet@photon@@QEAA@V?$vector@EV?$allocator@E@std@@@std@@@Z
??0PhotonTrackedTarget@photon@@QEAA@$$QEAV01@@Z
??0PhotonTrackedTarget_PhotonStruct@photon@@QEAA@AEBU01@@Z
??0Rotation3d@frc@@QEAA@AEBV?$Matrix@N$02$00$0A@$02$00@Eigen@@V?$unit_t@U?$unit@U?$ratio@$00$00@std@@U?$base_unit@U?$ratio@$0A@$00@std@@U12@U12@U?$ratio@$00$00@2@U12@U12@U12@U12@U12@@units@@U?$ratio@$0A@$00@2@U52@@units@@NUlinear_scale@2@@units@@@Z
??0Rotation3d@frc@@QEAA@AEBVQuaternion@1@@Z
??0TargetModel@photon@@QEAA@V?$unit_t@U?$unit@U?$ratio@$00$00@std@@U?$base_unit@U?$ratio@$00$00@std@@U?$ratio@$0A@$00@2@U32@U32@U32@U32@U32@U32@U32@@units@@U?$ratio@$0A@$00@2@U52@@units@@NUlinear_scale@2@@units@@0@Z
??0TimeSyncClient@tsp@wpi@@QEAA@V?$basic_string_view@DU?$char_traits@D@std@@@std@@HV?$duration@_JU?$ratio@$00$0DOI@@std@@@chrono@4@@Z
??0TimeSyncServer@tsp@wpi@@QEAA@H@Z
??0Transform3d@frc@@QEAA@AEBVPose3d@1@0@Z
??0bad_alloc@std@@QEAA@AEBV01@@Z
??0bad_alloc@std@@QEAA@XZ
??0bad_array_new_length@std@@QEAA@AEBV01@@Z
??0bad_array_new_length@std@@QEAA@XZ
??0bad_optional_access@std@@QEAA@AEBV01@@Z
??0domain_error@std@@QEAA@AEBV01@@Z
??0domain_error@std@@QEAA@PEBD@Z
??0exception@std@@QEAA@AEBV01@@Z
??0logic_error@std@@QEAA@AEBV01@@Z
??0runtime_error@std@@QEAA@AEBV01@@Z
??0runtime_error@std@@QEAA@PEBD@Z
??1?$CommaInitializer@V?$Matrix@N$02$02$0A@$02$02@Eigen@@@Eigen@@QEAA@XZ
??1?$Matrix@N$01$0?0$0A@$01$0?0@Eigen@@QEAA@XZ
??1?$Matrix@N$03$0?0$0A@$03$0?0@Eigen@@QEAA@XZ
??1?$ProblemState@$02@@QEAA@XZ
??1?$SlotBase@$$V@detail@sig@wpi@@UEAA@XZ
??1?$SlotBase@AEAVBuffer@uv@wpi@@_KAEBUsockaddr@@I@detail@sig@wpi@@UEAA@XZ
??1?$SmallVector@E$09@wpi@@QEAA@XZ
??1?$SmallVector@E$0BC@@wpi@@QEAA@XZ
??1?$SmallVector@VBuffer@uv@wpi@@$00@wpi@@QEAA@XZ
??1?$SmallVectorImpl@E@wpi@@IEAA@XZ
??1?$SmallVectorImpl@VBuffer@uv@wpi@@@wpi@@IEAA@XZ
??1?$_Optional_construct_base@VMultiTargetPNPResult@photon@@@std@@QEAA@XZ
??1?$_Ref_count_obj2@V?$Slot@P8TimeSyncClient@tsp@wpi@@EAAXAEAVBuffer@uv@3@_KAEBUsockaddr@@I@ZQEAV123@U?$typelist@AEAVBuffer@uv@wpi@@_KAEBUsockaddr@@I@trait@sig@3@@detail@sig@wpi@@@std@@UEAA@XZ
??1?$_Ref_count_obj2@V?$Slot@P8TimeSyncClient@tsp@wpi@@EAAXXZPEAV123@U?$typelist@$$V@trait@sig@3@@detail@sig@wpi@@@std@@UEAA@XZ
??1?$_Ref_count_obj2@V?$Slot@P8TimeSyncServer@tsp@wpi@@EAAXAEAVBuffer@uv@3@_KAEBUsockaddr@@I@ZQEAV123@U?$typelist@AEAVBuffer@uv@wpi@@_KAEBUsockaddr@@I@trait@sig@3@@detail@sig@wpi@@@std@@UEAA@XZ
??1?$_Ref_count_obj2@V?$Slot@V?$function@$$A6AXAEAVBuffer@uv@wpi@@_KAEBUsockaddr@@I@Z@std@@U?$typelist@AEAVBuffer@uv@wpi@@_KAEBUsockaddr@@I@trait@sig@wpi@@@detail@sig@wpi@@@std@@UEAA@XZ
??1?$_Ref_count_obj2@V?$Slot@V?$function@$$A6AXXZ@std@@U?$typelist@$$V@trait@sig@wpi@@@detail@sig@wpi@@@std@@UEAA@XZ
??1?$_Tidy_guard@V?$vector@VPhotonTrackedTarget@photon@@V?$allocator@VPhotonTrackedTarget@photon@@@std@@@std@@@std@@QEAA@XZ
??1?$_Uninitialized_backout_al@V?$allocator@VPhotonTrackedTarget@photon@@@std@@@std@@QEAA@XZ
??1?$bad_expected_access@W4SolverExitCondition@sleipnir@@@wpi@@UEAA@XZ
??1?$basic_string@DU?$char_traits@D@std@@V?$allocator@D@2@@std@@QEAA@XZ
??1?$basic_stringbuf@DU?$char_traits@D@std@@V?$allocator@D@2@@std@@UEAA@XZ
??1?$basic_stringstream@DU?$char_traits@D@std@@V?$allocator@D@2@@std@@UEAA@XZ
??1?$function@$$A6A_KXZ@std@@QEAA@XZ
??1?$shared_ptr@V?$Slot@P8TimeSyncClient@tsp@wpi@@EAAXAEAVBuffer@uv@3@_KAEBUsockaddr@@I@ZQEAV123@U?$typelist@AEAVBuffer@uv@wpi@@_KAEBUsockaddr@@I@trait@sig@3@@detail@sig@wpi@@@std@@QEAA@XZ
??1?$shared_ptr@V?$Slot@P8TimeSyncClient@tsp@wpi@@EAAXXZPEAV123@U?$typelist@$$V@trait@sig@3@@detail@sig@wpi@@@std@@QEAA@XZ
??1?$shared_ptr@V?$Slot@P8TimeSyncServer@tsp@wpi@@EAAXAEAVBuffer@uv@3@_KAEBUsockaddr@@I@ZQEAV123@U?$typelist@AEAVBuffer@uv@wpi@@_KAEBUsockaddr@@I@trait@sig@3@@detail@sig@wpi@@@std@@QEAA@XZ
??1?$shared_ptr@VLoop@uv@wpi@@@std@@QEAA@XZ
??1?$shared_ptr@VTimer@uv@wpi@@@std@@QEAA@XZ
??1?$shared_ptr@VUdp@uv@wpi@@@std@@QEAA@XZ
??1?$vector@EV?$allocator@E@std@@@std@@QEAA@XZ
??1?$vector@FV?$allocator@F@std@@@std@@QEAA@XZ
??1?$vector@UAprilTag@frc@@V?$allocator@UAprilTag@frc@@@std@@@std@@QEAA@XZ
??1?$vector@V?$Point3_@M@cv@@V?$allocator@V?$Point3_@M@cv@@@std@@@std@@QEAA@XZ
??1?$vector@V?$Point_@M@cv@@V?$allocator@V?$Point_@M@cv@@@std@@@std@@QEAA@XZ
??1?$vector@VMat@cv@@V?$allocator@VMat@cv@@@std@@@std@@QEAA@XZ
??1?$vector@VPhotonTrackedTarget@photon@@V?$allocator@VPhotonTrackedTarget@photon@@@std@@@std@@QEAA@XZ
??1?$vector@VTargetCorner@photon@@V?$allocator@VTargetCorner@photon@@@std@@@std@@QEAA@XZ
??1?$vector@VTranslation3d@frc@@V?$allocator@VTranslation3d@frc@@@std@@@std@@QEAA@XZ
??1Connection@sig@wpi@@UEAA@XZ
??1IOFormat@Eigen@@QEAA@XZ
??1Logger@wpi@@QEAA@XZ
??1MatExpr@cv@@QEAA@XZ
??1MultiTargetPNPResult_PhotonStruct@photon@@QEAA@XZ
??1PhotonPipelineResult_PhotonStruct@photon@@QEAA@XZ
??1PhotonTrackedTarget@photon@@QEAA@XZ
??1PhotonTrackedTarget_PhotonStruct@photon@@QEAA@XZ
??1SlotState@detail@sig@wpi@@UEAA@XZ
??1_Ref_count_base@std@@UEAA@XZ
??1_Sentry_base@?$basic_ostream@DU?$char_traits@D@std@@@std@@QEAA@XZ
??1_Vaporization_guard@?$vector@VTargetCorner@photon@@V?$allocator@VTargetCorner@photon@@@std@@@std@@QEAA@XZ
??1_Vaporization_guard@?$vector@VTranslation3d@frc@@V?$allocator@VTranslation3d@frc@@@std@@@std@@QEAA@XZ
??1bad_alloc@std@@UEAA@XZ
??1bad_array_new_length@std@@UEAA@XZ
??1bad_optional_access@std@@UEAA@XZ
??1domain_error@std@@UEAA@XZ
??1exception@std@@UEAA@XZ
??1logic_error@std@@UEAA@XZ
??1runtime_error@std@@UEAA@XZ
??1sentry@?$basic_ostream@DU?$char_traits@D@std@@@std@@QEAA@XZ
??4?$shared_ptr@V?$SlotBase@$$V@detail@sig@wpi@@@std@@QEAAAEAV01@AEBV01@@Z
??4?$shared_ptr@V?$SlotBase@AEAVBuffer@uv@wpi@@_KAEBUsockaddr@@I@detail@sig@wpi@@@std@@QEAAAEAV01@AEBV01@@Z
??4?$vector@VTranslation3d@frc@@V?$allocator@VTranslation3d@frc@@@std@@@std@@QEAAAEAV01@$$QEAV01@@Z
??8Packet@photon@@QEBA_NAEBV01@@Z
??9Packet@photon@@QEBA_NAEBV01@@Z
??BMatExpr@cv@@QEBA?AVMat@1@XZ
??DQuaternion@frc@@QEBA?AV01@AEBV01@@Z
??GRotation3d@frc@@QEBA?AV01@XZ
??Q?$CommaInitializer@V?$Matrix@N$03$03$0A@$03$03@Eigen@@@Eigen@@QEAAAEAU01@AEBN@Z
??_7?$Slot@P8TimeSyncClient@tsp@wpi@@EAAXAEAVBuffer@uv@3@_KAEBUsockaddr@@I@ZQEAV123@U?$typelist@AEAVBuffer@uv@wpi@@_KAEBUsockaddr@@I@trait@sig@3@@detail@sig@wpi@@6B@
??_7?$Slot@P8TimeSyncClient@tsp@wpi@@EAAXXZPEAV123@U?$typelist@$$V@trait@sig@3@@detail@sig@wpi@@6B@
??_7?$Slot@P8TimeSyncServer@tsp@wpi@@EAAXAEAVBuffer@uv@3@_KAEBUsockaddr@@I@ZQEAV123@U?$typelist@AEAVBuffer@uv@wpi@@_KAEBUsockaddr@@I@trait@sig@3@@detail@sig@wpi@@6B@
??_7?$Slot@V?$function@$$A6AXAEAVBuffer@uv@wpi@@_KAEBUsockaddr@@I@Z@std@@U?$typelist@AEAVBuffer@uv@wpi@@_KAEBUsockaddr@@I@trait@sig@wpi@@@detail@sig@wpi@@6B@
??_7?$Slot@V?$function@$$A6AXXZ@std@@U?$typelist@$$V@trait@sig@wpi@@@detail@sig@wpi@@6B@
??_7?$SlotBase@$$V@detail@sig@wpi@@6B@
??_7?$SlotBase@AEAVBuffer@uv@wpi@@_KAEBUsockaddr@@I@detail@sig@wpi@@6B@
??_7?$_Func_impl_no_alloc@P6AXIPEBDI0@ZXIPEBDIPEBD@std@@6B@
??_7?$_Func_impl_no_alloc@P6A_JXZ_K$$V@std@@6B@
??_7?$_Func_impl_no_alloc@UCallSlots@?$SignalBase@UNullMutex@detail@sig@wpi@@$$V@sig@wpi@@X$$V@std@@6B@
??_7?$_Func_impl_no_alloc@UCallSlots@?$SignalBase@UNullMutex@detail@sig@wpi@@AEAVBuffer@uv@4@_KAEBUsockaddr@@I@sig@wpi@@XAEAVBuffer@uv@4@_KAEBUsockaddr@@I@std@@6B@
??_7?$_Ref_count_obj2@V?$Slot@P8TimeSyncClient@tsp@wpi@@EAAXAEAVBuffer@uv@3@_KAEBUsockaddr@@I@ZQEAV123@U?$typelist@AEAVBuffer@uv@wpi@@_KAEBUsockaddr@@I@trait@sig@3@@detail@sig@wpi@@@std@@6B@
??_7?$_Ref_count_obj2@V?$Slot@P8TimeSyncClient@tsp@wpi@@EAAXXZPEAV123@U?$typelist@$$V@trait@sig@3@@detail@sig@wpi@@@std@@6B@
??_7?$_Ref_count_obj2@V?$Slot@P8TimeSyncServer@tsp@wpi@@EAAXAEAVBuffer@uv@3@_KAEBUsockaddr@@I@ZQEAV123@U?$typelist@AEAVBuffer@uv@wpi@@_KAEBUsockaddr@@I@trait@sig@3@@detail@sig@wpi@@@std@@6B@
??_7?$_Ref_count_obj2@V?$Slot@V?$function@$$A6AXAEAVBuffer@uv@wpi@@_KAEBUsockaddr@@I@Z@std@@U?$typelist@AEAVBuffer@uv@wpi@@_KAEBUsockaddr@@I@trait@sig@wpi@@@detail@sig@wpi@@@std@@6B@
??_7?$_Ref_count_obj2@V?$Slot@V?$function@$$A6AXXZ@std@@U?$typelist@$$V@trait@sig@wpi@@@detail@sig@wpi@@@std@@6B@
??_7?$bad_expected_access@W4SolverExitCondition@sleipnir@@@wpi@@6B@
??_7?$basic_stringbuf@DU?$char_traits@D@std@@V?$allocator@D@2@@std@@6B@
??_7?$basic_stringstream@DU?$char_traits@D@std@@V?$allocator@D@2@@std@@6B@
??_7Connection@sig@wpi@@6B@
??_7SlotState@detail@sig@wpi@@6B@
??_7bad_alloc@std@@6B@
??_7bad_array_new_length@std@@6B@
??_7bad_optional_access@std@@6B@
??_7domain_error@std@@6B@
??_7exception@std@@6B@
??_7logic_error@std@@6B@
??_7runtime_error@std@@6B@
??_D?$basic_stringstream@DU?$char_traits@D@std@@V?$allocator@D@2@@std@@QEAAXXZ
?Calculate@?$MedianFilter@_J@frc@@QEAA_J_J@Z
?Clear@Packet@photon@@QEAAXXZ
?EstimateCamPosePNP@VisionEstimation@photon@@YA?AV?$optional@UPnpResult@photon@@@std@@AEBV?$Matrix@N$02$02$0A@$02$02@Eigen@@AEBV?$Matrix@N$07$00$0A@$07$00@6@AEBV?$vector@VPhotonTrackedTarget@photon@@V?$allocator@VPhotonTrackedTarget@photon@@@std@@@4@AEBVAprilTagFieldLayout@frc@@AEBVTargetModel@2@@Z
?EstimateRobotPoseConstrainedSolvePNP@VisionEstimation@photon@@YA?AV?$optional@UPnpResult@photon@@@std@@AEBV?$Matrix@N$02$02$0A@$02$02@Eigen@@AEBV?$Matrix@N$07$00$0A@$07$00@6@AEBV?$vector@VPhotonTrackedTarget@photon@@V?$allocator@VPhotonTrackedTarget@photon@@@std@@@4@AEBVTransform3d@frc@@AEBVPose3d@frc@@AEBVAprilTagFieldLayout@frc@@AEBVTargetModel@2@_NVRotation2d@frc@@N@Z
?GetFieldVertices@TargetModel@photon@@QEBA?AV?$vector@VTranslation3d@frc@@V?$allocator@VTranslation3d@frc@@@std@@@std@@AEBVPose3d@frc@@@Z
?GetMetadata@TimeSyncClient@tsp@wpi@@QEAA?AUMetadata@123@XZ
?GetOffset@TimeSyncClient@tsp@wpi@@QEAA_JXZ
?GetVisibleLayoutTags@VisionEstimation@photon@@YA?AV?$vector@UAprilTag@frc@@V?$allocator@UAprilTag@frc@@@std@@@std@@AEBV?$vector@VPhotonTrackedTarget@photon@@V?$allocator@VPhotonTrackedTarget@photon@@@std@@@4@AEBVAprilTagFieldLayout@frc@@@Z
?Inverse@Transform3d@frc@@QEBA?AV12@XZ
?Pack@?$SerdeType@UPnpResult@photon@@@photon@@SAXAEAVPacket@2@AEBUPnpResult@2@@Z
?Pack@?$SerdeType@VMultiTargetPNPResult@photon@@@photon@@SAXAEAVPacket@2@AEBVMultiTargetPNPResult@2@@Z
?Pack@?$SerdeType@VPhotonPipelineMetadata@photon@@@photon@@SAXAEAVPacket@2@AEBVPhotonPipelineMetadata@2@@Z
?Pack@?$SerdeType@VPhotonPipelineResult@photon@@@photon@@SAXAEAVPacket@2@AEBVPhotonPipelineResult@2@@Z
?Pack@?$SerdeType@VPhotonTrackedTarget@photon@@@photon@@SAXAEAVPacket@2@AEBVPhotonTrackedTarget@2@@Z
?Pack@?$SerdeType@VTargetCorner@photon@@@photon@@SAXAEAVPacket@2@AEBVTargetCorner@2@@Z
?RotateBy@Translation3d@frc@@QEBA?AV12@AEBVRotation3d@2@@Z
?Start@TimeSyncClient@tsp@wpi@@QEAAXXZ
?Start@TimeSyncServer@tsp@wpi@@QEAAXXZ
?Stop@TimeSyncClient@tsp@wpi@@QEAAXXZ
?Stop@TimeSyncServer@tsp@wpi@@QEAAXXZ
?Tick@TimeSyncClient@tsp@wpi@@AEAAXXZ
?ToMatrix@Transform3d@frc@@QEBA?AV?$Matrix@N$03$03$0A@$03$03@Eigen@@XZ
?TransformBy@Pose3d@frc@@QEBA?AV12@AEBVTransform3d@2@@Z
?UdpCallback@TimeSyncClient@tsp@wpi@@AEAAXAEAVBuffer@uv@3@_KAEBUsockaddr@@I@Z
?UdpCallback@TimeSyncServer@tsp@wpi@@AEAAXAEAVBuffer@uv@3@_KAEBUsockaddr@@I@Z
?Unpack@?$SerdeType@UPnpResult@photon@@@photon@@SA?AUPnpResult@2@AEAVPacket@2@@Z
?Unpack@?$SerdeType@V?$vector@FV?$allocator@F@std@@@std@@@photon@@SA?AV?$vector@FV?$allocator@F@std@@@std@@AEAVPacket@2@@Z
?Unpack@?$SerdeType@V?$vector@VPhotonTrackedTarget@photon@@V?$allocator@VPhotonTrackedTarget@photon@@@std@@@std@@@photon@@SA?AV?$vector@VPhotonTrackedTarget@photon@@V?$allocator@VPhotonTrackedTarget@photon@@@std@@@std@@AEAVPacket@2@@Z
?Unpack@?$SerdeType@V?$vector@VTargetCorner@photon@@V?$allocator@VTargetCorner@photon@@@std@@@std@@@photon@@SA?AV?$vector@VTargetCorner@photon@@V?$allocator@VTargetCorner@photon@@@std@@@std@@AEAVPacket@2@@Z
?Unpack@?$SerdeType@VMultiTargetPNPResult@photon@@@photon@@SA?AVMultiTargetPNPResult@2@AEAVPacket@2@@Z
?Unpack@?$SerdeType@VPhotonPipelineMetadata@photon@@@photon@@SA?AVPhotonPipelineMetadata@2@AEAVPacket@2@@Z
?Unpack@?$SerdeType@VPhotonPipelineResult@photon@@@photon@@SA?AVPhotonPipelineResult@2@AEAVPacket@2@@Z
?Unpack@?$SerdeType@VPhotonTrackedTarget@photon@@@photon@@SA?AVPhotonTrackedTarget@2@AEAVPacket@2@@Z
?Unpack@?$SerdeType@VTargetCorner@photon@@@photon@@SA?AVTargetCorner@2@AEAVPacket@2@@Z
?UpdateStatistics@TimeSyncClient@tsp@wpi@@QEAAX_KUTspPing@23@UTspPong@23@@Z
?_Buy_nonzero@?$vector@EV?$allocator@E@std@@@std@@AEAAX_K@Z
?_Buy_raw@?$vector@FV?$allocator@F@std@@@std@@AEAAX_K@Z
?_Buy_raw@?$vector@VPhotonTrackedTarget@photon@@V?$allocator@VPhotonTrackedTarget@photon@@@std@@@std@@AEAAX_K@Z
?_Buy_raw@?$vector@VTargetCorner@photon@@V?$allocator@VTargetCorner@photon@@@std@@@std@@AEAAX_K@Z
?_Buy_raw@?$vector@VTranslation3d@frc@@V?$allocator@VTranslation3d@frc@@@std@@@std@@AEAAX_K@Z
?_Change_array@?$vector@FV?$allocator@F@std@@@std@@AEAAXQEAF_K1@Z
?_Change_array@?$vector@V?$Point3_@M@cv@@V?$allocator@V?$Point3_@M@cv@@@std@@@std@@AEAAXQEAV?$Point3_@M@cv@@_K1@Z
?_Change_array@?$vector@V?$Point_@M@cv@@V?$allocator@V?$Point_@M@cv@@@std@@@std@@AEAAXQEAV?$Point_@M@cv@@_K1@Z
?_Change_array@?$vector@VPhotonTrackedTarget@photon@@V?$allocator@VPhotonTrackedTarget@photon@@@std@@@std@@AEAAXQEAVPhotonTrackedTarget@photon@@_K1@Z
?_Change_array@?$vector@VTargetCorner@photon@@V?$allocator@VTargetCorner@photon@@@std@@@std@@AEAAXQEAVTargetCorner@photon@@_K1@Z
?_Change_array@?$vector@VTranslation3d@frc@@V?$allocator@VTranslation3d@frc@@@std@@@std@@AEAAXQEAVTranslation3d@frc@@_K1@Z
?_Copy@?$_Func_impl_no_alloc@P6AXIPEBDI0@ZXIPEBDIPEBD@std@@EEBAPEAV?$_Func_base@XIPEBDIPEBD@2@PEAX@Z
?_Copy@?$_Func_impl_no_alloc@P6A_JXZ_K$$V@std@@EEBAPEAV?$_Func_base@_K$$V@2@PEAX@Z
?_Copy@?$_Func_impl_no_alloc@UCallSlots@?$SignalBase@UNullMutex@detail@sig@wpi@@$$V@sig@wpi@@X$$V@std@@EEBAPEAV?$_Func_base@X$$V@2@PEAX@Z
?_Copy@?$_Func_impl_no_alloc@UCallSlots@?$SignalBase@UNullMutex@detail@sig@wpi@@AEAVBuffer@uv@4@_KAEBUsockaddr@@I@sig@wpi@@XAEAVBuffer@uv@4@_KAEBUsockaddr@@I@std@@EEBAPEAV?$_Func_base@XAEAVBuffer@uv@wpi@@_KAEBUsockaddr@@I@2@PEAX@Z
?_Delete_this@?$_Func_impl_no_alloc@P6AXIPEBDI0@ZXIPEBDIPEBD@std@@EEAAX_N@Z
?_Delete_this@?$_Func_impl_no_alloc@P6A_JXZ_K$$V@std@@EEAAX_N@Z
?_Delete_this@?$_Func_impl_no_alloc@UCallSlots@?$SignalBase@UNullMutex@detail@sig@wpi@@$$V@sig@wpi@@X$$V@std@@EEAAX_N@Z
?_Delete_this@?$_Func_impl_no_alloc@UCallSlots@?$SignalBase@UNullMutex@detail@sig@wpi@@AEAVBuffer@uv@4@_KAEBUsockaddr@@I@sig@wpi@@XAEAVBuffer@uv@4@_KAEBUsockaddr@@I@std@@EEAAX_N@Z
?_Delete_this@?$_Ref_count_obj2@V?$Slot@P8TimeSyncClient@tsp@wpi@@EAAXAEAVBuffer@uv@3@_KAEBUsockaddr@@I@ZQEAV123@U?$typelist@AEAVBuffer@uv@wpi@@_KAEBUsockaddr@@I@trait@sig@3@@detail@sig@wpi@@@std@@EEAAXXZ
?_Delete_this@?$_Ref_count_obj2@V?$Slot@P8TimeSyncClient@tsp@wpi@@EAAXXZPEAV123@U?$typelist@$$V@trait@sig@3@@detail@sig@wpi@@@std@@EEAAXXZ
?_Delete_this@?$_Ref_count_obj2@V?$Slot@P8TimeSyncServer@tsp@wpi@@EAAXAEAVBuffer@uv@3@_KAEBUsockaddr@@I@ZQEAV123@U?$typelist@AEAVBuffer@uv@wpi@@_KAEBUsockaddr@@I@trait@sig@3@@detail@sig@wpi@@@std@@EEAAXXZ
?_Delete_this@?$_Ref_count_obj2@V?$Slot@V?$function@$$A6AXAEAVBuffer@uv@wpi@@_KAEBUsockaddr@@I@Z@std@@U?$typelist@AEAVBuffer@uv@wpi@@_KAEBUsockaddr@@I@trait@sig@wpi@@@detail@sig@wpi@@@std@@EEAAXXZ
?_Delete_this@?$_Ref_count_obj2@V?$Slot@V?$function@$$A6AXXZ@std@@U?$typelist@$$V@trait@sig@wpi@@@detail@sig@wpi@@@std@@EEAAXXZ
?_Destroy@?$_Ref_count_obj2@V?$Slot@P8TimeSyncClient@tsp@wpi@@EAAXAEAVBuffer@uv@3@_KAEBUsockaddr@@I@ZQEAV123@U?$typelist@AEAVBuffer@uv@wpi@@_KAEBUsockaddr@@I@trait@sig@3@@detail@sig@wpi@@@std@@EEAAXXZ
?_Destroy@?$_Ref_count_obj2@V?$Slot@P8TimeSyncClient@tsp@wpi@@EAAXXZPEAV123@U?$typelist@$$V@trait@sig@3@@detail@sig@wpi@@@std@@EEAAXXZ
?_Destroy@?$_Ref_count_obj2@V?$Slot@P8TimeSyncServer@tsp@wpi@@EAAXAEAVBuffer@uv@3@_KAEBUsockaddr@@I@ZQEAV123@U?$typelist@AEAVBuffer@uv@wpi@@_KAEBUsockaddr@@I@trait@sig@3@@detail@sig@wpi@@@std@@EEAAXXZ
?_Destroy@?$_Ref_count_obj2@V?$Slot@V?$function@$$A6AXAEAVBuffer@uv@wpi@@_KAEBUsockaddr@@I@Z@std@@U?$typelist@AEAVBuffer@uv@wpi@@_KAEBUsockaddr@@I@trait@sig@wpi@@@detail@sig@wpi@@@std@@EEAAXXZ
?_Destroy@?$_Ref_count_obj2@V?$Slot@V?$function@$$A6AXXZ@std@@U?$typelist@$$V@trait@sig@wpi@@@detail@sig@wpi@@@std@@EEAAXXZ
?_Do_call@?$_Func_impl_no_alloc@P6AXIPEBDI0@ZXIPEBDIPEBD@std@@EEAAX$$QEAI$$QEAPEBD01@Z
?_Do_call@?$_Func_impl_no_alloc@P6A_JXZ_K$$V@std@@EEAA_KXZ
?_Do_call@?$_Func_impl_no_alloc@UCallSlots@?$SignalBase@UNullMutex@detail@sig@wpi@@$$V@sig@wpi@@X$$V@std@@EEAAXXZ
?_Do_call@?$_Func_impl_no_alloc@UCallSlots@?$SignalBase@UNullMutex@detail@sig@wpi@@AEAVBuffer@uv@4@_KAEBUsockaddr@@I@sig@wpi@@XAEAVBuffer@uv@4@_KAEBUsockaddr@@I@std@@EEAAXAEAVBuffer@uv@wpi@@$$QEA_KAEBUsockaddr@@$$QEAI@Z
?_Get@?$_Func_impl_no_alloc@P6AXIPEBDI0@ZXIPEBDIPEBD@std@@EEBAPEBXXZ
?_Get@?$_Func_impl_no_alloc@P6A_JXZ_K$$V@std@@EEBAPEBXXZ
?_Get@?$_Func_impl_no_alloc@UCallSlots@?$SignalBase@UNullMutex@detail@sig@wpi@@$$V@sig@wpi@@X$$V@std@@EEBAPEBXXZ
?_Get@?$_Func_impl_no_alloc@UCallSlots@?$SignalBase@UNullMutex@detail@sig@wpi@@AEAVBuffer@uv@4@_KAEBUsockaddr@@I@sig@wpi@@XAEAVBuffer@uv@4@_KAEBUsockaddr@@I@std@@EEBAPEBXXZ
?_Get_deleter@_Ref_count_base@std@@UEBAPEAXAEBVtype_info@@@Z
?_Maklocwcs@std@@YAPEA_WPEB_W@Z
?_Move@?$_Func_impl_no_alloc@P6AXIPEBDI0@ZXIPEBDIPEBD@std@@EEAAPEAV?$_Func_base@XIPEBDIPEBD@2@PEAX@Z
?_Move@?$_Func_impl_no_alloc@P6A_JXZ_K$$V@std@@EEAAPEAV?$_Func_base@_K$$V@2@PEAX@Z
?_Move@?$_Func_impl_no_alloc@UCallSlots@?$SignalBase@UNullMutex@detail@sig@wpi@@$$V@sig@wpi@@X$$V@std@@EEAAPEAV?$_Func_base@X$$V@2@PEAX@Z
?_Move@?$_Func_impl_no_alloc@UCallSlots@?$SignalBase@UNullMutex@detail@sig@wpi@@AEAVBuffer@uv@4@_KAEBUsockaddr@@I@sig@wpi@@XAEAVBuffer@uv@4@_KAEBUsockaddr@@I@std@@EEAAPEAV?$_Func_base@XAEAVBuffer@uv@wpi@@_KAEBUsockaddr@@I@2@PEAX@Z
?_Reset_move@?$_Func_class@X$$V@std@@IEAAX$$QEAV12@@Z
?_Reset_move@?$_Func_class@XAEAVBuffer@uv@wpi@@_KAEBUsockaddr@@I@std@@IEAAX$$QEAV12@@Z
?_Reset_move@?$_Func_class@XIPEBDIPEBD@std@@IEAAX$$QEAV12@@Z
?_Target_type@?$_Func_impl_no_alloc@P6AXIPEBDI0@ZXIPEBDIPEBD@std@@EEBAAEBVtype_info@@XZ
?_Target_type@?$_Func_impl_no_alloc@P6A_JXZ_K$$V@std@@EEBAAEBVtype_info@@XZ
?_Target_type@?$_Func_impl_no_alloc@UCallSlots@?$SignalBase@UNullMutex@detail@sig@wpi@@$$V@sig@wpi@@X$$V@std@@EEBAAEBVtype_info@@XZ
?_Target_type@?$_Func_impl_no_alloc@UCallSlots@?$SignalBase@UNullMutex@detail@sig@wpi@@AEAVBuffer@uv@4@_KAEBUsockaddr@@I@sig@wpi@@XAEAVBuffer@uv@4@_KAEBUsockaddr@@I@std@@EEBAAEBVtype_info@@XZ
?_Throw_bad_array_new_length@std@@YAXXZ
?_Tidy@?$vector@VPhotonTrackedTarget@photon@@V?$allocator@VPhotonTrackedTarget@photon@@@std@@@std@@AEAAXXZ
?_Tidy@?$vector@VTargetCorner@photon@@V?$allocator@VTargetCorner@photon@@@std@@@std@@AEAAXXZ
?_Tidy@?$vector@VTranslation3d@frc@@V?$allocator@VTranslation3d@frc@@@std@@@std@@AEAAXXZ
?_Xlen_string@std@@YAXXZ
?_Xlength@?$vector@EV?$allocator@E@std@@@std@@CAXXZ
?_Xlength@?$vector@FV?$allocator@F@std@@@std@@CAXXZ
?_Xlength@?$vector@UAprilTag@frc@@V?$allocator@UAprilTag@frc@@@std@@@std@@CAXXZ
?_Xlength@?$vector@V?$Point3_@M@cv@@V?$allocator@V?$Point3_@M@cv@@@std@@@std@@CAXXZ
?_Xlength@?$vector@V?$Point_@M@cv@@V?$allocator@V?$Point_@M@cv@@@std@@@std@@CAXXZ
?_Xlength@?$vector@VPhotonTrackedTarget@photon@@V?$allocator@VPhotonTrackedTarget@photon@@@std@@@std@@CAXXZ
?_Xlength@?$vector@VTargetCorner@photon@@V?$allocator@VTargetCorner@photon@@@std@@@std@@CAXXZ
?_Xlength@?$vector@VTranslation3d@frc@@V?$allocator@VTranslation3d@frc@@@std@@@std@@CAXXZ
?_Xlength@?$vector@_JV?$allocator@_J@std@@@std@@CAXXZ
?_Xrange@?$vector@VMat@cv@@V?$allocator@VMat@cv@@@std@@@std@@CAXXZ
?any@?$DenseBase@V?$CwiseBinaryOp@U?$scalar_cmp_op@NN$01$0A@@internal@Eigen@@$$CBV?$ArrayWrapper@V?$Diagonal@$$CBV?$Matrix@N$02$02$0A@$02$02@Eigen@@$0A@@Eigen@@@3@$$CBV?$CwiseNullaryOp@U?$scalar_constant_op@N@internal@Eigen@@V?$Array@N$02$00$0A@$02$00@3@@3@@Eigen@@@Eigen@@QEBA_NXZ
?assign@?$basic_string@DU?$char_traits@D@std@@V?$allocator@D@2@@std@@QEAAAEAV12@QEBD_K@Z
?calculateJ@?$ProblemState@$02@@QEAANV?$Matrix@N$02$00$0A@$02$00@Eigen@@@Z
?call_slot@?$Slot@P8TimeSyncClient@tsp@wpi@@EAAXAEAVBuffer@uv@3@_KAEBUsockaddr@@I@ZQEAV123@U?$typelist@AEAVBuffer@uv@wpi@@_KAEBUsockaddr@@I@trait@sig@3@@detail@sig@wpi@@UEAAXAEAVBuffer@uv@4@_KAEBUsockaddr@@I@Z
?call_slot@?$Slot@P8TimeSyncClient@tsp@wpi@@EAAXXZPEAV123@U?$typelist@$$V@trait@sig@3@@detail@sig@wpi@@UEAAXXZ
?call_slot@?$Slot@P8TimeSyncServer@tsp@wpi@@EAAXAEAVBuffer@uv@3@_KAEBUsockaddr@@I@ZQEAV123@U?$typelist@AEAVBuffer@uv@wpi@@_KAEBUsockaddr@@I@trait@sig@3@@detail@sig@wpi@@UEAAXAEAVBuffer@uv@4@_KAEBUsockaddr@@I@Z
?call_slot@?$Slot@V?$function@$$A6AXAEAVBuffer@uv@wpi@@_KAEBUsockaddr@@I@Z@std@@U?$typelist@AEAVBuffer@uv@wpi@@_KAEBUsockaddr@@I@trait@sig@wpi@@@detail@sig@wpi@@UEAAXAEAVBuffer@uv@4@_KAEBUsockaddr@@I@Z
?call_slot@?$Slot@V?$function@$$A6AXXZ@std@@U?$typelist@$$V@trait@sig@wpi@@@detail@sig@wpi@@UEAAXXZ
?deallocate@?$allocator@D@std@@QEAAXQEAD_K@Z
?determinant@?$ct_matrix@N$02$02@frc@@QEBANXZ
?do_optimization@constrained_solvepnp@@YA?AV?$expected@V?$Matrix@N$02$00$0A@$02$00@Eigen@@W4SolverExitCondition@sleipnir@@@wpi@@_NHUCameraCalibration@1@V?$Matrix@N$03$03$0A@$03$03@Eigen@@V?$Matrix@N$02$00$0A@$02$00@6@V?$Matrix@N$03$0?0$0A@$03$0?0@6@V?$Matrix@N$01$0?0$0A@$01$0?0@6@NN@Z
?finished@?$CommaInitializer@V?$Matrix@N$03$03$0A@$03$03@Eigen@@@Eigen@@QEAAAEAV?$Matrix@N$03$03$0A@$03$03@2@XZ
?info@?$LDLT@V?$Matrix@N$02$02$0A@$02$02@Eigen@@$00@Eigen@@QEBA?AW4ComputationInfo@2@XZ
?matrixL@?$LDLT@V?$Matrix@N$02$02$0A@$02$02@Eigen@@$00@Eigen@@QEBA?BV?$TriangularView@$$CBV?$Matrix@N$02$02$0A@$02$02@Eigen@@$04@2@XZ
?noalias@?$MatrixBase@V?$Block@V?$Matrix@N$02$02$0A@$02$02@Eigen@@$0?0$00$0A@@Eigen@@@Eigen@@QEAA?AV?$NoAlias@V?$Block@V?$Matrix@N$02$02$0A@$02$02@Eigen@@$0?0$00$0A@@Eigen@@VMatrixBase@2@@2@XZ
?overflow@?$basic_stringbuf@DU?$char_traits@D@std@@V?$allocator@D@2@@std@@MEAAHH@Z
?pbackfail@?$basic_stringbuf@DU?$char_traits@D@std@@V?$allocator@D@2@@std@@MEAAHH@Z
?resize@?$vector@EV?$allocator@E@std@@@std@@QEAAX_K@Z
?seekoff@?$basic_stringbuf@DU?$char_traits@D@std@@V?$allocator@D@2@@std@@MEAA?AV?$fpos@U_Mbstatet@@@2@_JHH@Z
?seekpos@?$basic_stringbuf@DU?$char_traits@D@std@@V?$allocator@D@2@@std@@MEAA?AV?$fpos@U_Mbstatet@@@2@V32@H@Z
?throw_std_bad_alloc@internal@Eigen@@YAXXZ
?underflow@?$basic_stringbuf@DU?$char_traits@D@std@@V?$allocator@D@2@@std@@MEAAHXZ
?vectorD@?$LDLT@V?$Matrix@N$02$02$0A@$02$02@Eigen@@$00@Eigen@@QEBA?AV?$Diagonal@$$CBV?$Matrix@N$02$02$0A@$02$02@Eigen@@$0A@@2@XZ
?what@?$bad_expected_access@W4SolverExitCondition@sleipnir@@@wpi@@UEBAPEBDXZ
?what@bad_optional_access@std@@UEBAPEBDXZ
?what@exception@std@@UEBAPEBDXZ
calc_J_10_tags_heading_fixed
calc_J_10_tags_heading_fixed_alloc_mem
calc_J_10_tags_heading_fixed_checkout
calc_J_10_tags_heading_fixed_decref
calc_J_10_tags_heading_fixed_default_in
calc_J_10_tags_heading_fixed_free_mem
calc_J_10_tags_heading_fixed_incref
calc_J_10_tags_heading_fixed_init_mem
calc_J_10_tags_heading_fixed_n_in
calc_J_10_tags_heading_fixed_n_out
calc_J_10_tags_heading_fixed_name_in
calc_J_10_tags_heading_fixed_name_out
calc_J_10_tags_heading_fixed_release
calc_J_10_tags_heading_fixed_sparsity_in
calc_J_10_tags_heading_fixed_sparsity_out
calc_J_10_tags_heading_fixed_work
calc_J_10_tags_heading_fixed_work_bytes
calc_J_10_tags_heading_free
calc_J_10_tags_heading_free_alloc_mem
calc_J_10_tags_heading_free_checkout
calc_J_10_tags_heading_free_decref
calc_J_10_tags_heading_free_default_in
calc_J_10_tags_heading_free_free_mem
calc_J_10_tags_heading_free_incref
calc_J_10_tags_heading_free_init_mem
calc_J_10_tags_heading_free_n_in
calc_J_10_tags_heading_free_n_out
calc_J_10_tags_heading_free_name_in
calc_J_10_tags_heading_free_name_out
calc_J_10_tags_heading_free_release
calc_J_10_tags_heading_free_sparsity_in
calc_J_10_tags_heading_free_sparsity_out
calc_J_10_tags_heading_free_work
calc_J_10_tags_heading_free_work_bytes
calc_J_1_tags_heading_fixed
calc_J_1_tags_heading_fixed_alloc_mem
calc_J_1_tags_heading_fixed_checkout
calc_J_1_tags_heading_fixed_decref
calc_J_1_tags_heading_fixed_default_in
calc_J_1_tags_heading_fixed_free_mem
calc_J_1_tags_heading_fixed_incref
calc_J_1_tags_heading_fixed_init_mem
calc_J_1_tags_heading_fixed_n_in
calc_J_1_tags_heading_fixed_n_out
calc_J_1_tags_heading_fixed_name_in
calc_J_1_tags_heading_fixed_name_out
calc_J_1_tags_heading_fixed_release
calc_J_1_tags_heading_fixed_sparsity_in
calc_J_1_tags_heading_fixed_sparsity_out
calc_J_1_tags_heading_fixed_work
calc_J_1_tags_heading_fixed_work_bytes
calc_J_1_tags_heading_free
calc_J_1_tags_heading_free_alloc_mem
calc_J_1_tags_heading_free_checkout
calc_J_1_tags_heading_free_decref
calc_J_1_tags_heading_free_default_in
calc_J_1_tags_heading_free_free_mem
calc_J_1_tags_heading_free_incref
calc_J_1_tags_heading_free_init_mem
calc_J_1_tags_heading_free_n_in
calc_J_1_tags_heading_free_n_out
calc_J_1_tags_heading_free_name_in
calc_J_1_tags_heading_free_name_out
calc_J_1_tags_heading_free_release
calc_J_1_tags_heading_free_sparsity_in
calc_J_1_tags_heading_free_sparsity_out
calc_J_1_tags_heading_free_work
calc_J_1_tags_heading_free_work_bytes
calc_J_2_tags_heading_fixed
calc_J_2_tags_heading_fixed_alloc_mem
calc_J_2_tags_heading_fixed_checkout
calc_J_2_tags_heading_fixed_decref
calc_J_2_tags_heading_fixed_default_in
calc_J_2_tags_heading_fixed_free_mem
calc_J_2_tags_heading_fixed_incref
calc_J_2_tags_heading_fixed_init_mem
calc_J_2_tags_heading_fixed_n_in
calc_J_2_tags_heading_fixed_n_out
calc_J_2_tags_heading_fixed_name_in
calc_J_2_tags_heading_fixed_name_out
calc_J_2_tags_heading_fixed_release
calc_J_2_tags_heading_fixed_sparsity_in
calc_J_2_tags_heading_fixed_sparsity_out
calc_J_2_tags_heading_fixed_work
calc_J_2_tags_heading_fixed_work_bytes
calc_J_2_tags_heading_free
calc_J_2_tags_heading_free_alloc_mem
calc_J_2_tags_heading_free_checkout
calc_J_2_tags_heading_free_decref
calc_J_2_tags_heading_free_default_in
calc_J_2_tags_heading_free_free_mem
calc_J_2_tags_heading_free_incref
calc_J_2_tags_heading_free_init_mem
calc_J_2_tags_heading_free_n_in
calc_J_2_tags_heading_free_n_out
calc_J_2_tags_heading_free_name_in
calc_J_2_tags_heading_free_name_out
calc_J_2_tags_heading_free_release
calc_J_2_tags_heading_free_sparsity_in
calc_J_2_tags_heading_free_sparsity_out
calc_J_2_tags_heading_free_work
calc_J_2_tags_heading_free_work_bytes
calc_J_3_tags_heading_fixed
calc_J_3_tags_heading_fixed_alloc_mem
calc_J_3_tags_heading_fixed_checkout
calc_J_3_tags_heading_fixed_decref
calc_J_3_tags_heading_fixed_default_in
calc_J_3_tags_heading_fixed_free_mem
calc_J_3_tags_heading_fixed_incref
calc_J_3_tags_heading_fixed_init_mem
calc_J_3_tags_heading_fixed_n_in
calc_J_3_tags_heading_fixed_n_out
calc_J_3_tags_heading_fixed_name_in
calc_J_3_tags_heading_fixed_name_out
calc_J_3_tags_heading_fixed_release
calc_J_3_tags_heading_fixed_sparsity_in
calc_J_3_tags_heading_fixed_sparsity_out
calc_J_3_tags_heading_fixed_work
calc_J_3_tags_heading_fixed_work_bytes
calc_J_3_tags_heading_free
calc_J_3_tags_heading_free_alloc_mem
calc_J_3_tags_heading_free_checkout
calc_J_3_tags_heading_free_decref
calc_J_3_tags_heading_free_default_in
calc_J_3_tags_heading_free_free_mem
calc_J_3_tags_heading_free_incref
calc_J_3_tags_heading_free_init_mem
calc_J_3_tags_heading_free_n_in
calc_J_3_tags_heading_free_n_out
calc_J_3_tags_heading_free_name_in
calc_J_3_tags_heading_free_name_out
calc_J_3_tags_heading_free_release
calc_J_3_tags_heading_free_sparsity_in
calc_J_3_tags_heading_free_sparsity_out
calc_J_3_tags_heading_free_work
calc_J_3_tags_heading_free_work_bytes
calc_J_4_tags_heading_fixed
calc_J_4_tags_heading_fixed_alloc_mem
calc_J_4_tags_heading_fixed_checkout
calc_J_4_tags_heading_fixed_decref
calc_J_4_tags_heading_fixed_default_in
calc_J_4_tags_heading_fixed_free_mem
calc_J_4_tags_heading_fixed_incref
calc_J_4_tags_heading_fixed_init_mem
calc_J_4_tags_heading_fixed_n_in
calc_J_4_tags_heading_fixed_n_out
calc_J_4_tags_heading_fixed_name_in
calc_J_4_tags_heading_fixed_name_out
calc_J_4_tags_heading_fixed_release
calc_J_4_tags_heading_fixed_sparsity_in
calc_J_4_tags_heading_fixed_sparsity_out
calc_J_4_tags_heading_fixed_work
calc_J_4_tags_heading_fixed_work_bytes
calc_J_4_tags_heading_free
calc_J_4_tags_heading_free_alloc_mem
calc_J_4_tags_heading_free_checkout
calc_J_4_tags_heading_free_decref
calc_J_4_tags_heading_free_default_in
calc_J_4_tags_heading_free_free_mem
calc_J_4_tags_heading_free_incref
calc_J_4_tags_heading_free_init_mem
calc_J_4_tags_heading_free_n_in
calc_J_4_tags_heading_free_n_out
calc_J_4_tags_heading_free_name_in
calc_J_4_tags_heading_free_name_out
calc_J_4_tags_heading_free_release
calc_J_4_tags_heading_free_sparsity_in
calc_J_4_tags_heading_free_sparsity_out
calc_J_4_tags_heading_free_work
calc_J_4_tags_heading_free_work_bytes
calc_J_5_tags_heading_fixed
calc_J_5_tags_heading_fixed_alloc_mem
calc_J_5_tags_heading_fixed_checkout
calc_J_5_tags_heading_fixed_decref
calc_J_5_tags_heading_fixed_default_in
calc_J_5_tags_heading_fixed_free_mem
calc_J_5_tags_heading_fixed_incref
calc_J_5_tags_heading_fixed_init_mem
calc_J_5_tags_heading_fixed_n_in
calc_J_5_tags_heading_fixed_n_out
calc_J_5_tags_heading_fixed_name_in
calc_J_5_tags_heading_fixed_name_out
calc_J_5_tags_heading_fixed_release
calc_J_5_tags_heading_fixed_sparsity_in
calc_J_5_tags_heading_fixed_sparsity_out
calc_J_5_tags_heading_fixed_work
calc_J_5_tags_heading_fixed_work_bytes
calc_J_5_tags_heading_free
calc_J_5_tags_heading_free_alloc_mem
calc_J_5_tags_heading_free_checkout
calc_J_5_tags_heading_free_decref
calc_J_5_tags_heading_free_default_in
calc_J_5_tags_heading_free_free_mem
calc_J_5_tags_heading_free_incref
calc_J_5_tags_heading_free_init_mem
calc_J_5_tags_heading_free_n_in
calc_J_5_tags_heading_free_n_out
calc_J_5_tags_heading_free_name_in
calc_J_5_tags_heading_free_name_out
calc_J_5_tags_heading_free_release
calc_J_5_tags_heading_free_sparsity_in
calc_J_5_tags_heading_free_sparsity_out
calc_J_5_tags_heading_free_work
calc_J_5_tags_heading_free_work_bytes
calc_J_6_tags_heading_fixed
calc_J_6_tags_heading_fixed_alloc_mem
calc_J_6_tags_heading_fixed_checkout
calc_J_6_tags_heading_fixed_decref
calc_J_6_tags_heading_fixed_default_in
calc_J_6_tags_heading_fixed_free_mem
calc_J_6_tags_heading_fixed_incref
calc_J_6_tags_heading_fixed_init_mem
calc_J_6_tags_heading_fixed_n_in
calc_J_6_tags_heading_fixed_n_out
calc_J_6_tags_heading_fixed_name_in
calc_J_6_tags_heading_fixed_name_out
calc_J_6_tags_heading_fixed_release
calc_J_6_tags_heading_fixed_sparsity_in
calc_J_6_tags_heading_fixed_sparsity_out
calc_J_6_tags_heading_fixed_work
calc_J_6_tags_heading_fixed_work_bytes
calc_J_6_tags_heading_free
calc_J_6_tags_heading_free_alloc_mem
calc_J_6_tags_heading_free_checkout
calc_J_6_tags_heading_free_decref
calc_J_6_tags_heading_free_default_in
calc_J_6_tags_heading_free_free_mem
calc_J_6_tags_heading_free_incref
calc_J_6_tags_heading_free_init_mem
calc_J_6_tags_heading_free_n_in
calc_J_6_tags_heading_free_n_out
calc_J_6_tags_heading_free_name_in
calc_J_6_tags_heading_free_name_out
calc_J_6_tags_heading_free_release
calc_J_6_tags_heading_free_sparsity_in
calc_J_6_tags_heading_free_sparsity_out
calc_J_6_tags_heading_free_work
calc_J_6_tags_heading_free_work_bytes
calc_J_7_tags_heading_fixed
calc_J_7_tags_heading_fixed_alloc_mem
calc_J_7_tags_heading_fixed_checkout
calc_J_7_tags_heading_fixed_decref
calc_J_7_tags_heading_fixed_default_in
calc_J_7_tags_heading_fixed_free_mem
calc_J_7_tags_heading_fixed_incref
calc_J_7_tags_heading_fixed_init_mem
calc_J_7_tags_heading_fixed_n_in
calc_J_7_tags_heading_fixed_n_out
calc_J_7_tags_heading_fixed_name_in
calc_J_7_tags_heading_fixed_name_out
calc_J_7_tags_heading_fixed_release
calc_J_7_tags_heading_fixed_sparsity_in
calc_J_7_tags_heading_fixed_sparsity_out
calc_J_7_tags_heading_fixed_work
calc_J_7_tags_heading_fixed_work_bytes
calc_J_7_tags_heading_free
calc_J_7_tags_heading_free_alloc_mem
calc_J_7_tags_heading_free_checkout
calc_J_7_tags_heading_free_decref
calc_J_7_tags_heading_free_default_in
calc_J_7_tags_heading_free_free_mem
calc_J_7_tags_heading_free_incref
calc_J_7_tags_heading_free_init_mem
calc_J_7_tags_heading_free_n_in
calc_J_7_tags_heading_free_n_out
calc_J_7_tags_heading_free_name_in
calc_J_7_tags_heading_free_name_out
calc_J_7_tags_heading_free_release
calc_J_7_tags_heading_free_sparsity_in
calc_J_7_tags_heading_free_sparsity_out
calc_J_7_tags_heading_free_work
calc_J_7_tags_heading_free_work_bytes
calc_J_8_tags_heading_fixed
calc_J_8_tags_heading_fixed_alloc_mem
calc_J_8_tags_heading_fixed_checkout
calc_J_8_tags_heading_fixed_decref
calc_J_8_tags_heading_fixed_default_in
calc_J_8_tags_heading_fixed_free_mem
calc_J_8_tags_heading_fixed_incref
calc_J_8_tags_heading_fixed_init_mem
calc_J_8_tags_heading_fixed_n_in
calc_J_8_tags_heading_fixed_n_out
calc_J_8_tags_heading_fixed_name_in
calc_J_8_tags_heading_fixed_name_out
calc_J_8_tags_heading_fixed_release
calc_J_8_tags_heading_fixed_sparsity_in
calc_J_8_tags_heading_fixed_sparsity_out
calc_J_8_tags_heading_fixed_work
calc_J_8_tags_heading_fixed_work_bytes
calc_J_8_tags_heading_free
calc_J_8_tags_heading_free_alloc_mem
calc_J_8_tags_heading_free_checkout
calc_J_8_tags_heading_free_decref
calc_J_8_tags_heading_free_default_in
calc_J_8_tags_heading_free_free_mem
calc_J_8_tags_heading_free_incref
calc_J_8_tags_heading_free_init_mem
calc_J_8_tags_heading_free_n_in
calc_J_8_tags_heading_free_n_out
calc_J_8_tags_heading_free_name_in
calc_J_8_tags_heading_free_name_out
calc_J_8_tags_heading_free_release
calc_J_8_tags_heading_free_sparsity_in
calc_J_8_tags_heading_free_sparsity_out
calc_J_8_tags_heading_free_work
calc_J_8_tags_heading_free_work_bytes
calc_J_9_tags_heading_fixed
calc_J_9_tags_heading_fixed_alloc_mem
calc_J_9_tags_heading_fixed_checkout
calc_J_9_tags_heading_fixed_decref
calc_J_9_tags_heading_fixed_default_in
calc_J_9_tags_heading_fixed_free_mem
calc_J_9_tags_heading_fixed_incref
calc_J_9_tags_heading_fixed_init_mem
calc_J_9_tags_heading_fixed_n_in
calc_J_9_tags_heading_fixed_n_out
calc_J_9_tags_heading_fixed_name_in
calc_J_9_tags_heading_fixed_name_out
calc_J_9_tags_heading_fixed_release
calc_J_9_tags_heading_fixed_sparsity_in
calc_J_9_tags_heading_fixed_sparsity_out
calc_J_9_tags_heading_fixed_work
calc_J_9_tags_heading_fixed_work_bytes
calc_J_9_tags_heading_free
calc_J_9_tags_heading_free_alloc_mem
calc_J_9_tags_heading_free_checkout
calc_J_9_tags_heading_free_decref
calc_J_9_tags_heading_free_default_in
calc_J_9_tags_heading_free_free_mem
calc_J_9_tags_heading_free_incref
calc_J_9_tags_heading_free_init_mem
calc_J_9_tags_heading_free_n_in
calc_J_9_tags_heading_free_n_out
calc_J_9_tags_heading_free_name_in
calc_J_9_tags_heading_free_name_out
calc_J_9_tags_heading_free_release
calc_J_9_tags_heading_free_sparsity_in
calc_J_9_tags_heading_free_sparsity_out
calc_J_9_tags_heading_free_work
calc_J_9_tags_heading_free_work_bytes
calc_gradJ_10_tags_heading_fixed
calc_gradJ_10_tags_heading_fixed_alloc_mem
calc_gradJ_10_tags_heading_fixed_checkout
calc_gradJ_10_tags_heading_fixed_decref
calc_gradJ_10_tags_heading_fixed_default_in
calc_gradJ_10_tags_heading_fixed_free_mem
calc_gradJ_10_tags_heading_fixed_incref
calc_gradJ_10_tags_heading_fixed_init_mem
calc_gradJ_10_tags_heading_fixed_n_in
calc_gradJ_10_tags_heading_fixed_n_out
calc_gradJ_10_tags_heading_fixed_name_in
calc_gradJ_10_tags_heading_fixed_name_out
calc_gradJ_10_tags_heading_fixed_release
calc_gradJ_10_tags_heading_fixed_sparsity_in
calc_gradJ_10_tags_heading_fixed_sparsity_out
calc_gradJ_10_tags_heading_fixed_work
calc_gradJ_10_tags_heading_fixed_work_bytes
calc_gradJ_10_tags_heading_free
calc_gradJ_10_tags_heading_free_alloc_mem
calc_gradJ_10_tags_heading_free_checkout
calc_gradJ_10_tags_heading_free_decref
calc_gradJ_10_tags_heading_free_default_in
calc_gradJ_10_tags_heading_free_free_mem
calc_gradJ_10_tags_heading_free_incref
calc_gradJ_10_tags_heading_free_init_mem
calc_gradJ_10_tags_heading_free_n_in
calc_gradJ_10_tags_heading_free_n_out
calc_gradJ_10_tags_heading_free_name_in
calc_gradJ_10_tags_heading_free_name_out
calc_gradJ_10_tags_heading_free_release
calc_gradJ_10_tags_heading_free_sparsity_in
calc_gradJ_10_tags_heading_free_sparsity_out
calc_gradJ_10_tags_heading_free_work
calc_gradJ_10_tags_heading_free_work_bytes
calc_gradJ_1_tags_heading_fixed
calc_gradJ_1_tags_heading_fixed_alloc_mem
calc_gradJ_1_tags_heading_fixed_checkout
calc_gradJ_1_tags_heading_fixed_decref
calc_gradJ_1_tags_heading_fixed_default_in
calc_gradJ_1_tags_heading_fixed_free_mem
calc_gradJ_1_tags_heading_fixed_incref
calc_gradJ_1_tags_heading_fixed_init_mem
calc_gradJ_1_tags_heading_fixed_n_in
calc_gradJ_1_tags_heading_fixed_n_out
calc_gradJ_1_tags_heading_fixed_name_in
calc_gradJ_1_tags_heading_fixed_name_out
calc_gradJ_1_tags_heading_fixed_release
calc_gradJ_1_tags_heading_fixed_sparsity_in
calc_gradJ_1_tags_heading_fixed_sparsity_out
calc_gradJ_1_tags_heading_fixed_work
calc_gradJ_1_tags_heading_fixed_work_bytes
calc_gradJ_1_tags_heading_free
calc_gradJ_1_tags_heading_free_alloc_mem
calc_gradJ_1_tags_heading_free_checkout
calc_gradJ_1_tags_heading_free_decref
calc_gradJ_1_tags_heading_free_default_in
calc_gradJ_1_tags_heading_free_free_mem
calc_gradJ_1_tags_heading_free_incref
calc_gradJ_1_tags_heading_free_init_mem
calc_gradJ_1_tags_heading_free_n_in
calc_gradJ_1_tags_heading_free_n_out
calc_gradJ_1_tags_heading_free_name_in
calc_gradJ_1_tags_heading_free_name_out
calc_gradJ_1_tags_heading_free_release
calc_gradJ_1_tags_heading_free_sparsity_in
calc_gradJ_1_tags_heading_free_sparsity_out
calc_gradJ_1_tags_heading_free_work
calc_gradJ_1_tags_heading_free_work_bytes
calc_gradJ_2_tags_heading_fixed
calc_gradJ_2_tags_heading_fixed_alloc_mem
calc_gradJ_2_tags_heading_fixed_checkout
calc_gradJ_2_tags_heading_fixed_decref
calc_gradJ_2_tags_heading_fixed_default_in
calc_gradJ_2_tags_heading_fixed_free_mem
calc_gradJ_2_tags_heading_fixed_incref
calc_gradJ_2_tags_heading_fixed_init_mem
calc_gradJ_2_tags_heading_fixed_n_in
calc_gradJ_2_tags_heading_fixed_n_out
calc_gradJ_2_tags_heading_fixed_name_in
calc_gradJ_2_tags_heading_fixed_name_out
calc_gradJ_2_tags_heading_fixed_release
calc_gradJ_2_tags_heading_fixed_sparsity_in
calc_gradJ_2_tags_heading_fixed_sparsity_out
calc_gradJ_2_tags_heading_fixed_work
calc_gradJ_2_tags_heading_fixed_work_bytes
calc_gradJ_2_tags_heading_free
calc_gradJ_2_tags_heading_free_alloc_mem
calc_gradJ_2_tags_heading_free_checkout
calc_gradJ_2_tags_heading_free_decref
calc_gradJ_2_tags_heading_free_default_in
calc_gradJ_2_tags_heading_free_free_mem
calc_gradJ_2_tags_heading_free_incref
calc_gradJ_2_tags_heading_free_init_mem
calc_gradJ_2_tags_heading_free_n_in
calc_gradJ_2_tags_heading_free_n_out
calc_gradJ_2_tags_heading_free_name_in
calc_gradJ_2_tags_heading_free_name_out
calc_gradJ_2_tags_heading_free_release
calc_gradJ_2_tags_heading_free_sparsity_in
calc_gradJ_2_tags_heading_free_sparsity_out
calc_gradJ_2_tags_heading_free_work
calc_gradJ_2_tags_heading_free_work_bytes
calc_gradJ_3_tags_heading_fixed
calc_gradJ_3_tags_heading_fixed_alloc_mem
calc_gradJ_3_tags_heading_fixed_checkout
calc_gradJ_3_tags_heading_fixed_decref
calc_gradJ_3_tags_heading_fixed_default_in
calc_gradJ_3_tags_heading_fixed_free_mem
calc_gradJ_3_tags_heading_fixed_incref
calc_gradJ_3_tags_heading_fixed_init_mem
calc_gradJ_3_tags_heading_fixed_n_in
calc_gradJ_3_tags_heading_fixed_n_out
calc_gradJ_3_tags_heading_fixed_name_in
calc_gradJ_3_tags_heading_fixed_name_out
calc_gradJ_3_tags_heading_fixed_release
calc_gradJ_3_tags_heading_fixed_sparsity_in
calc_gradJ_3_tags_heading_fixed_sparsity_out
calc_gradJ_3_tags_heading_fixed_work
calc_gradJ_3_tags_heading_fixed_work_bytes
calc_gradJ_3_tags_heading_free
calc_gradJ_3_tags_heading_free_alloc_mem
calc_gradJ_3_tags_heading_free_checkout
calc_gradJ_3_tags_heading_free_decref
calc_gradJ_3_tags_heading_free_default_in
calc_gradJ_3_tags_heading_free_free_mem
calc_gradJ_3_tags_heading_free_incref
calc_gradJ_3_tags_heading_free_init_mem
calc_gradJ_3_tags_heading_free_n_in
calc_gradJ_3_tags_heading_free_n_out
calc_gradJ_3_tags_heading_free_name_in
calc_gradJ_3_tags_heading_free_name_out
calc_gradJ_3_tags_heading_free_release
calc_gradJ_3_tags_heading_free_sparsity_in
calc_gradJ_3_tags_heading_free_sparsity_out
calc_gradJ_3_tags_heading_free_work
calc_gradJ_3_tags_heading_free_work_bytes
calc_gradJ_4_tags_heading_fixed
calc_gradJ_4_tags_heading_fixed_alloc_mem
calc_gradJ_4_tags_heading_fixed_checkout
calc_gradJ_4_tags_heading_fixed_decref
calc_gradJ_4_tags_heading_fixed_default_in
calc_gradJ_4_tags_heading_fixed_free_mem
calc_gradJ_4_tags_heading_fixed_incref
calc_gradJ_4_tags_heading_fixed_init_mem
calc_gradJ_4_tags_heading_fixed_n_in
calc_gradJ_4_tags_heading_fixed_n_out
calc_gradJ_4_tags_heading_fixed_name_in
calc_gradJ_4_tags_heading_fixed_name_out
calc_gradJ_4_tags_heading_fixed_release
calc_gradJ_4_tags_heading_fixed_sparsity_in
calc_gradJ_4_tags_heading_fixed_sparsity_out
calc_gradJ_4_tags_heading_fixed_work
calc_gradJ_4_tags_heading_fixed_work_bytes
calc_gradJ_4_tags_heading_free
calc_gradJ_4_tags_heading_free_alloc_mem
calc_gradJ_4_tags_heading_free_checkout
calc_gradJ_4_tags_heading_free_decref
calc_gradJ_4_tags_heading_free_default_in
calc_gradJ_4_tags_heading_free_free_mem
calc_gradJ_4_tags_heading_free_incref
calc_gradJ_4_tags_heading_free_init_mem
calc_gradJ_4_tags_heading_free_n_in
calc_gradJ_4_tags_heading_free_n_out
calc_gradJ_4_tags_heading_free_name_in
calc_gradJ_4_tags_heading_free_name_out
calc_gradJ_4_tags_heading_free_release
calc_gradJ_4_tags_heading_free_sparsity_in
calc_gradJ_4_tags_heading_free_sparsity_out
calc_gradJ_4_tags_heading_free_work
calc_gradJ_4_tags_heading_free_work_bytes
calc_gradJ_5_tags_heading_fixed
calc_gradJ_5_tags_heading_fixed_alloc_mem
calc_gradJ_5_tags_heading_fixed_checkout
calc_gradJ_5_tags_heading_fixed_decref
calc_gradJ_5_tags_heading_fixed_default_in
calc_gradJ_5_tags_heading_fixed_free_mem
calc_gradJ_5_tags_heading_fixed_incref
calc_gradJ_5_tags_heading_fixed_init_mem
calc_gradJ_5_tags_heading_fixed_n_in
calc_gradJ_5_tags_heading_fixed_n_out
calc_gradJ_5_tags_heading_fixed_name_in
calc_gradJ_5_tags_heading_fixed_name_out
calc_gradJ_5_tags_heading_fixed_release
calc_gradJ_5_tags_heading_fixed_sparsity_in
calc_gradJ_5_tags_heading_fixed_sparsity_out
calc_gradJ_5_tags_heading_fixed_work
calc_gradJ_5_tags_heading_fixed_work_bytes
calc_gradJ_5_tags_heading_free
calc_gradJ_5_tags_heading_free_alloc_mem
calc_gradJ_5_tags_heading_free_checkout
calc_gradJ_5_tags_heading_free_decref
calc_gradJ_5_tags_heading_free_default_in
calc_gradJ_5_tags_heading_free_free_mem
calc_gradJ_5_tags_heading_free_incref
calc_gradJ_5_tags_heading_free_init_mem
calc_gradJ_5_tags_heading_free_n_in
calc_gradJ_5_tags_heading_free_n_out
calc_gradJ_5_tags_heading_free_name_in
calc_gradJ_5_tags_heading_free_name_out
calc_gradJ_5_tags_heading_free_release
calc_gradJ_5_tags_heading_free_sparsity_in
calc_gradJ_5_tags_heading_free_sparsity_out
calc_gradJ_5_tags_heading_free_work
calc_gradJ_5_tags_heading_free_work_bytes
calc_gradJ_6_tags_heading_fixed
calc_gradJ_6_tags_heading_fixed_alloc_mem
calc_gradJ_6_tags_heading_fixed_checkout
calc_gradJ_6_tags_heading_fixed_decref
calc_gradJ_6_tags_heading_fixed_default_in
calc_gradJ_6_tags_heading_fixed_free_mem
calc_gradJ_6_tags_heading_fixed_incref
calc_gradJ_6_tags_heading_fixed_init_mem
calc_gradJ_6_tags_heading_fixed_n_in
calc_gradJ_6_tags_heading_fixed_n_out
calc_gradJ_6_tags_heading_fixed_name_in
calc_gradJ_6_tags_heading_fixed_name_out
calc_gradJ_6_tags_heading_fixed_release
calc_gradJ_6_tags_heading_fixed_sparsity_in
calc_gradJ_6_tags_heading_fixed_sparsity_out
calc_gradJ_6_tags_heading_fixed_work
calc_gradJ_6_tags_heading_fixed_work_bytes
calc_gradJ_6_tags_heading_free
calc_gradJ_6_tags_heading_free_alloc_mem
calc_gradJ_6_tags_heading_free_checkout
calc_gradJ_6_tags_heading_free_decref
calc_gradJ_6_tags_heading_free_default_in
calc_gradJ_6_tags_heading_free_free_mem
calc_gradJ_6_tags_heading_free_incref
calc_gradJ_6_tags_heading_free_init_mem
calc_gradJ_6_tags_heading_free_n_in
calc_gradJ_6_tags_heading_free_n_out
calc_gradJ_6_tags_heading_free_name_in
calc_gradJ_6_tags_heading_free_name_out
calc_gradJ_6_tags_heading_free_release
calc_gradJ_6_tags_heading_free_sparsity_in
calc_gradJ_6_tags_heading_free_sparsity_out
calc_gradJ_6_tags_heading_free_work
calc_gradJ_6_tags_heading_free_work_bytes
calc_gradJ_7_tags_heading_fixed
calc_gradJ_7_tags_heading_fixed_alloc_mem
calc_gradJ_7_tags_heading_fixed_checkout
calc_gradJ_7_tags_heading_fixed_decref
calc_gradJ_7_tags_heading_fixed_default_in
calc_gradJ_7_tags_heading_fixed_free_mem
calc_gradJ_7_tags_heading_fixed_incref
calc_gradJ_7_tags_heading_fixed_init_mem
calc_gradJ_7_tags_heading_fixed_n_in
calc_gradJ_7_tags_heading_fixed_n_out
calc_gradJ_7_tags_heading_fixed_name_in
calc_gradJ_7_tags_heading_fixed_name_out
calc_gradJ_7_tags_heading_fixed_release
calc_gradJ_7_tags_heading_fixed_sparsity_in
calc_gradJ_7_tags_heading_fixed_sparsity_out
calc_gradJ_7_tags_heading_fixed_work
calc_gradJ_7_tags_heading_fixed_work_bytes
calc_gradJ_7_tags_heading_free
calc_gradJ_7_tags_heading_free_alloc_mem
calc_gradJ_7_tags_heading_free_checkout
calc_gradJ_7_tags_heading_free_decref
calc_gradJ_7_tags_heading_free_default_in
calc_gradJ_7_tags_heading_free_free_mem
calc_gradJ_7_tags_heading_free_incref
calc_gradJ_7_tags_heading_free_init_mem
calc_gradJ_7_tags_heading_free_n_in
calc_gradJ_7_tags_heading_free_n_out
calc_gradJ_7_tags_heading_free_name_in
calc_gradJ_7_tags_heading_free_name_out
calc_gradJ_7_tags_heading_free_release
calc_gradJ_7_tags_heading_free_sparsity_in
calc_gradJ_7_tags_heading_free_sparsity_out
calc_gradJ_7_tags_heading_free_work
calc_gradJ_7_tags_heading_free_work_bytes
calc_gradJ_8_tags_heading_fixed
calc_gradJ_8_tags_heading_fixed_alloc_mem
calc_gradJ_8_tags_heading_fixed_checkout
calc_gradJ_8_tags_heading_fixed_decref
calc_gradJ_8_tags_heading_fixed_default_in
calc_gradJ_8_tags_heading_fixed_free_mem
calc_gradJ_8_tags_heading_fixed_incref
calc_gradJ_8_tags_heading_fixed_init_mem
calc_gradJ_8_tags_heading_fixed_n_in
calc_gradJ_8_tags_heading_fixed_n_out
calc_gradJ_8_tags_heading_fixed_name_in
calc_gradJ_8_tags_heading_fixed_name_out
calc_gradJ_8_tags_heading_fixed_release
calc_gradJ_8_tags_heading_fixed_sparsity_in
calc_gradJ_8_tags_heading_fixed_sparsity_out
calc_gradJ_8_tags_heading_fixed_work
calc_gradJ_8_tags_heading_fixed_work_bytes
calc_gradJ_8_tags_heading_free
calc_gradJ_8_tags_heading_free_alloc_mem
calc_gradJ_8_tags_heading_free_checkout
calc_gradJ_8_tags_heading_free_decref
calc_gradJ_8_tags_heading_free_default_in
calc_gradJ_8_tags_heading_free_free_mem
calc_gradJ_8_tags_heading_free_incref
calc_gradJ_8_tags_heading_free_init_mem
calc_gradJ_8_tags_heading_free_n_in
calc_gradJ_8_tags_heading_free_n_out
calc_gradJ_8_tags_heading_free_name_in
calc_gradJ_8_tags_heading_free_name_out
calc_gradJ_8_tags_heading_free_release
calc_gradJ_8_tags_heading_free_sparsity_in
calc_gradJ_8_tags_heading_free_sparsity_out
calc_gradJ_8_tags_heading_free_work
calc_gradJ_8_tags_heading_free_work_bytes
calc_gradJ_9_tags_heading_fixed
calc_gradJ_9_tags_heading_fixed_alloc_mem
calc_gradJ_9_tags_heading_fixed_checkout
calc_gradJ_9_tags_heading_fixed_decref
calc_gradJ_9_tags_heading_fixed_default_in
calc_gradJ_9_tags_heading_fixed_free_mem
calc_gradJ_9_tags_heading_fixed_incref
calc_gradJ_9_tags_heading_fixed_init_mem
calc_gradJ_9_tags_heading_fixed_n_in
calc_gradJ_9_tags_heading_fixed_n_out
calc_gradJ_9_tags_heading_fixed_name_in
calc_gradJ_9_tags_heading_fixed_name_out
calc_gradJ_9_tags_heading_fixed_release
calc_gradJ_9_tags_heading_fixed_sparsity_in
calc_gradJ_9_tags_heading_fixed_sparsity_out
calc_gradJ_9_tags_heading_fixed_work
calc_gradJ_9_tags_heading_fixed_work_bytes
calc_gradJ_9_tags_heading_free
calc_gradJ_9_tags_heading_free_alloc_mem
calc_gradJ_9_tags_heading_free_checkout
calc_gradJ_9_tags_heading_free_decref
calc_gradJ_9_tags_heading_free_default_in
calc_gradJ_9_tags_heading_free_free_mem
calc_gradJ_9_tags_heading_free_incref
calc_gradJ_9_tags_heading_free_init_mem
calc_gradJ_9_tags_heading_free_n_in
calc_gradJ_9_tags_heading_free_n_out
calc_gradJ_9_tags_heading_free_name_in
calc_gradJ_9_tags_heading_free_name_out
calc_gradJ_9_tags_heading_free_release
calc_gradJ_9_tags_heading_free_sparsity_in
calc_gradJ_9_tags_heading_free_sparsity_out
calc_gradJ_9_tags_heading_free_work
calc_gradJ_9_tags_heading_free_work_bytes
calc_hessJ_10_tags_heading_fixed
calc_hessJ_10_tags_heading_fixed_alloc_mem
calc_hessJ_10_tags_heading_fixed_checkout
calc_hessJ_10_tags_heading_fixed_decref
calc_hessJ_10_tags_heading_fixed_default_in
calc_hessJ_10_tags_heading_fixed_free_mem
calc_hessJ_10_tags_heading_fixed_incref
calc_hessJ_10_tags_heading_fixed_init_mem
calc_hessJ_10_tags_heading_fixed_n_in
calc_hessJ_10_tags_heading_fixed_n_out
calc_hessJ_10_tags_heading_fixed_name_in
calc_hessJ_10_tags_heading_fixed_name_out
calc_hessJ_10_tags_heading_fixed_release
calc_hessJ_10_tags_heading_fixed_sparsity_in
calc_hessJ_10_tags_heading_fixed_sparsity_out
calc_hessJ_10_tags_heading_fixed_work
calc_hessJ_10_tags_heading_fixed_work_bytes
calc_hessJ_10_tags_heading_free
calc_hessJ_10_tags_heading_free_alloc_mem
calc_hessJ_10_tags_heading_free_checkout
calc_hessJ_10_tags_heading_free_decref
calc_hessJ_10_tags_heading_free_default_in
calc_hessJ_10_tags_heading_free_free_mem
calc_hessJ_10_tags_heading_free_incref
calc_hessJ_10_tags_heading_free_init_mem
calc_hessJ_10_tags_heading_free_n_in
calc_hessJ_10_tags_heading_free_n_out
calc_hessJ_10_tags_heading_free_name_in
calc_hessJ_10_tags_heading_free_name_out
calc_hessJ_10_tags_heading_free_release
calc_hessJ_10_tags_heading_free_sparsity_in
calc_hessJ_10_tags_heading_free_sparsity_out
calc_hessJ_10_tags_heading_free_work
calc_hessJ_10_tags_heading_free_work_bytes
calc_hessJ_1_tags_heading_fixed
calc_hessJ_1_tags_heading_fixed_alloc_mem
calc_hessJ_1_tags_heading_fixed_checkout
calc_hessJ_1_tags_heading_fixed_decref
calc_hessJ_1_tags_heading_fixed_default_in
calc_hessJ_1_tags_heading_fixed_free_mem
calc_hessJ_1_tags_heading_fixed_incref
calc_hessJ_1_tags_heading_fixed_init_mem
calc_hessJ_1_tags_heading_fixed_n_in
calc_hessJ_1_tags_heading_fixed_n_out
calc_hessJ_1_tags_heading_fixed_name_in
calc_hessJ_1_tags_heading_fixed_name_out
calc_hessJ_1_tags_heading_fixed_release
calc_hessJ_1_tags_heading_fixed_sparsity_in
calc_hessJ_1_tags_heading_fixed_sparsity_out
calc_hessJ_1_tags_heading_fixed_work
calc_hessJ_1_tags_heading_fixed_work_bytes
calc_hessJ_1_tags_heading_free
calc_hessJ_1_tags_heading_free_alloc_mem
calc_hessJ_1_tags_heading_free_checkout
calc_hessJ_1_tags_heading_free_decref
calc_hessJ_1_tags_heading_free_default_in
calc_hessJ_1_tags_heading_free_free_mem
calc_hessJ_1_tags_heading_free_incref
calc_hessJ_1_tags_heading_free_init_mem
calc_hessJ_1_tags_heading_free_n_in
calc_hessJ_1_tags_heading_free_n_out
calc_hessJ_1_tags_heading_free_name_in
calc_hessJ_1_tags_heading_free_name_out
calc_hessJ_1_tags_heading_free_release
calc_hessJ_1_tags_heading_free_sparsity_in
calc_hessJ_1_tags_heading_free_sparsity_out
calc_hessJ_1_tags_heading_free_work
calc_hessJ_1_tags_heading_free_work_bytes
calc_hessJ_2_tags_heading_fixed
calc_hessJ_2_tags_heading_fixed_alloc_mem
calc_hessJ_2_tags_heading_fixed_checkout
calc_hessJ_2_tags_heading_fixed_decref
calc_hessJ_2_tags_heading_fixed_default_in
calc_hessJ_2_tags_heading_fixed_free_mem
calc_hessJ_2_tags_heading_fixed_incref
calc_hessJ_2_tags_heading_fixed_init_mem
calc_hessJ_2_tags_heading_fixed_n_in
calc_hessJ_2_tags_heading_fixed_n_out
calc_hessJ_2_tags_heading_fixed_name_in
calc_hessJ_2_tags_heading_fixed_name_out
calc_hessJ_2_tags_heading_fixed_release
calc_hessJ_2_tags_heading_fixed_sparsity_in
calc_hessJ_2_tags_heading_fixed_sparsity_out
calc_hessJ_2_tags_heading_fixed_work
calc_hessJ_2_tags_heading_fixed_work_bytes
calc_hessJ_2_tags_heading_free
calc_hessJ_2_tags_heading_free_alloc_mem
calc_hessJ_2_tags_heading_free_checkout
calc_hessJ_2_tags_heading_free_decref
calc_hessJ_2_tags_heading_free_default_in
calc_hessJ_2_tags_heading_free_free_mem
calc_hessJ_2_tags_heading_free_incref
calc_hessJ_2_tags_heading_free_init_mem
calc_hessJ_2_tags_heading_free_n_in
calc_hessJ_2_tags_heading_free_n_out
calc_hessJ_2_tags_heading_free_name_in
calc_hessJ_2_tags_heading_free_name_out
calc_hessJ_2_tags_heading_free_release
calc_hessJ_2_tags_heading_free_sparsity_in
calc_hessJ_2_tags_heading_free_sparsity_out
calc_hessJ_2_tags_heading_free_work
calc_hessJ_2_tags_heading_free_work_bytes
calc_hessJ_3_tags_heading_fixed
calc_hessJ_3_tags_heading_fixed_alloc_mem
calc_hessJ_3_tags_heading_fixed_checkout
calc_hessJ_3_tags_heading_fixed_decref
calc_hessJ_3_tags_heading_fixed_default_in
calc_hessJ_3_tags_heading_fixed_free_mem
calc_hessJ_3_tags_heading_fixed_incref
calc_hessJ_3_tags_heading_fixed_init_mem
calc_hessJ_3_tags_heading_fixed_n_in
calc_hessJ_3_tags_heading_fixed_n_out
calc_hessJ_3_tags_heading_fixed_name_in
calc_hessJ_3_tags_heading_fixed_name_out
calc_hessJ_3_tags_heading_fixed_release
calc_hessJ_3_tags_heading_fixed_sparsity_in
calc_hessJ_3_tags_heading_fixed_sparsity_out
calc_hessJ_3_tags_heading_fixed_work
calc_hessJ_3_tags_heading_fixed_work_bytes
calc_hessJ_3_tags_heading_free
calc_hessJ_3_tags_heading_free_alloc_mem
calc_hessJ_3_tags_heading_free_checkout
calc_hessJ_3_tags_heading_free_decref
calc_hessJ_3_tags_heading_free_default_in
calc_hessJ_3_tags_heading_free_free_mem
calc_hessJ_3_tags_heading_free_incref
calc_hessJ_3_tags_heading_free_init_mem
calc_hessJ_3_tags_heading_free_n_in
calc_hessJ_3_tags_heading_free_n_out
calc_hessJ_3_tags_heading_free_name_in
calc_hessJ_3_tags_heading_free_name_out
calc_hessJ_3_tags_heading_free_release
calc_hessJ_3_tags_heading_free_sparsity_in
calc_hessJ_3_tags_heading_free_sparsity_out
calc_hessJ_3_tags_heading_free_work
calc_hessJ_3_tags_heading_free_work_bytes
calc_hessJ_4_tags_heading_fixed
calc_hessJ_4_tags_heading_fixed_alloc_mem
calc_hessJ_4_tags_heading_fixed_checkout
calc_hessJ_4_tags_heading_fixed_decref
calc_hessJ_4_tags_heading_fixed_default_in
calc_hessJ_4_tags_heading_fixed_free_mem
calc_hessJ_4_tags_heading_fixed_incref
calc_hessJ_4_tags_heading_fixed_init_mem
calc_hessJ_4_tags_heading_fixed_n_in
calc_hessJ_4_tags_heading_fixed_n_out
calc_hessJ_4_tags_heading_fixed_name_in
calc_hessJ_4_tags_heading_fixed_name_out
calc_hessJ_4_tags_heading_fixed_release
calc_hessJ_4_tags_heading_fixed_sparsity_in
calc_hessJ_4_tags_heading_fixed_sparsity_out
calc_hessJ_4_tags_heading_fixed_work
calc_hessJ_4_tags_heading_fixed_work_bytes
calc_hessJ_4_tags_heading_free
calc_hessJ_4_tags_heading_free_alloc_mem
calc_hessJ_4_tags_heading_free_checkout
calc_hessJ_4_tags_heading_free_decref
calc_hessJ_4_tags_heading_free_default_in
calc_hessJ_4_tags_heading_free_free_mem
calc_hessJ_4_tags_heading_free_incref
calc_hessJ_4_tags_heading_free_init_mem
calc_hessJ_4_tags_heading_free_n_in
calc_hessJ_4_tags_heading_free_n_out
calc_hessJ_4_tags_heading_free_name_in
calc_hessJ_4_tags_heading_free_name_out
calc_hessJ_4_tags_heading_free_release
calc_hessJ_4_tags_heading_free_sparsity_in
calc_hessJ_4_tags_heading_free_sparsity_out
calc_hessJ_4_tags_heading_free_work
calc_hessJ_4_tags_heading_free_work_bytes
calc_hessJ_5_tags_heading_fixed
calc_hessJ_5_tags_heading_fixed_alloc_mem
calc_hessJ_5_tags_heading_fixed_checkout
calc_hessJ_5_tags_heading_fixed_decref
calc_hessJ_5_tags_heading_fixed_default_in
calc_hessJ_5_tags_heading_fixed_free_mem
calc_hessJ_5_tags_heading_fixed_incref
calc_hessJ_5_tags_heading_fixed_init_mem
calc_hessJ_5_tags_heading_fixed_n_in
calc_hessJ_5_tags_heading_fixed_n_out
calc_hessJ_5_tags_heading_fixed_name_in
calc_hessJ_5_tags_heading_fixed_name_out
calc_hessJ_5_tags_heading_fixed_release
calc_hessJ_5_tags_heading_fixed_sparsity_in
calc_hessJ_5_tags_heading_fixed_sparsity_out
calc_hessJ_5_tags_heading_fixed_work
calc_hessJ_5_tags_heading_fixed_work_bytes
calc_hessJ_5_tags_heading_free
calc_hessJ_5_tags_heading_free_alloc_mem
calc_hessJ_5_tags_heading_free_checkout
calc_hessJ_5_tags_heading_free_decref
calc_hessJ_5_tags_heading_free_default_in
calc_hessJ_5_tags_heading_free_free_mem
calc_hessJ_5_tags_heading_free_incref
calc_hessJ_5_tags_heading_free_init_mem
calc_hessJ_5_tags_heading_free_n_in
calc_hessJ_5_tags_heading_free_n_out
calc_hessJ_5_tags_heading_free_name_in
calc_hessJ_5_tags_heading_free_name_out
calc_hessJ_5_tags_heading_free_release
calc_hessJ_5_tags_heading_free_sparsity_in
calc_hessJ_5_tags_heading_free_sparsity_out
calc_hessJ_5_tags_heading_free_work
calc_hessJ_5_tags_heading_free_work_bytes
calc_hessJ_6_tags_heading_fixed
calc_hessJ_6_tags_heading_fixed_alloc_mem
calc_hessJ_6_tags_heading_fixed_checkout
calc_hessJ_6_tags_heading_fixed_decref
calc_hessJ_6_tags_heading_fixed_default_in
calc_hessJ_6_tags_heading_fixed_free_mem
calc_hessJ_6_tags_heading_fixed_incref
calc_hessJ_6_tags_heading_fixed_init_mem
calc_hessJ_6_tags_heading_fixed_n_in
calc_hessJ_6_tags_heading_fixed_n_out
calc_hessJ_6_tags_heading_fixed_name_in
calc_hessJ_6_tags_heading_fixed_name_out
calc_hessJ_6_tags_heading_fixed_release
calc_hessJ_6_tags_heading_fixed_sparsity_in
calc_hessJ_6_tags_heading_fixed_sparsity_out
calc_hessJ_6_tags_heading_fixed_work
calc_hessJ_6_tags_heading_fixed_work_bytes
calc_hessJ_6_tags_heading_free
calc_hessJ_6_tags_heading_free_alloc_mem
calc_hessJ_6_tags_heading_free_checkout
calc_hessJ_6_tags_heading_free_decref
calc_hessJ_6_tags_heading_free_default_in
calc_hessJ_6_tags_heading_free_free_mem
calc_hessJ_6_tags_heading_free_incref
calc_hessJ_6_tags_heading_free_init_mem
calc_hessJ_6_tags_heading_free_n_in
calc_hessJ_6_tags_heading_free_n_out
calc_hessJ_6_tags_heading_free_name_in
calc_hessJ_6_tags_heading_free_name_out
calc_hessJ_6_tags_heading_free_release
calc_hessJ_6_tags_heading_free_sparsity_in
calc_hessJ_6_tags_heading_free_sparsity_out
calc_hessJ_6_tags_heading_free_work
calc_hessJ_6_tags_heading_free_work_bytes
calc_hessJ_7_tags_heading_fixed
calc_hessJ_7_tags_heading_fixed_alloc_mem
calc_hessJ_7_tags_heading_fixed_checkout
calc_hessJ_7_tags_heading_fixed_decref
calc_hessJ_7_tags_heading_fixed_default_in
calc_hessJ_7_tags_heading_fixed_free_mem
calc_hessJ_7_tags_heading_fixed_incref
calc_hessJ_7_tags_heading_fixed_init_mem
calc_hessJ_7_tags_heading_fixed_n_in
calc_hessJ_7_tags_heading_fixed_n_out
calc_hessJ_7_tags_heading_fixed_name_in
calc_hessJ_7_tags_heading_fixed_name_out
calc_hessJ_7_tags_heading_fixed_release
calc_hessJ_7_tags_heading_fixed_sparsity_in
calc_hessJ_7_tags_heading_fixed_sparsity_out
calc_hessJ_7_tags_heading_fixed_work
calc_hessJ_7_tags_heading_fixed_work_bytes
calc_hessJ_7_tags_heading_free
calc_hessJ_7_tags_heading_free_alloc_mem
calc_hessJ_7_tags_heading_free_checkout
calc_hessJ_7_tags_heading_free_decref
calc_hessJ_7_tags_heading_free_default_in
calc_hessJ_7_tags_heading_free_free_mem
calc_hessJ_7_tags_heading_free_incref
calc_hessJ_7_tags_heading_free_init_mem
calc_hessJ_7_tags_heading_free_n_in
calc_hessJ_7_tags_heading_free_n_out
calc_hessJ_7_tags_heading_free_name_in
calc_hessJ_7_tags_heading_free_name_out
calc_hessJ_7_tags_heading_free_release
calc_hessJ_7_tags_heading_free_sparsity_in
calc_hessJ_7_tags_heading_free_sparsity_out
calc_hessJ_7_tags_heading_free_work
calc_hessJ_7_tags_heading_free_work_bytes
calc_hessJ_8_tags_heading_fixed
calc_hessJ_8_tags_heading_fixed_alloc_mem
calc_hessJ_8_tags_heading_fixed_checkout
calc_hessJ_8_tags_heading_fixed_decref
calc_hessJ_8_tags_heading_fixed_default_in
calc_hessJ_8_tags_heading_fixed_free_mem
calc_hessJ_8_tags_heading_fixed_incref
calc_hessJ_8_tags_heading_fixed_init_mem
calc_hessJ_8_tags_heading_fixed_n_in
calc_hessJ_8_tags_heading_fixed_n_out
calc_hessJ_8_tags_heading_fixed_name_in
calc_hessJ_8_tags_heading_fixed_name_out
calc_hessJ_8_tags_heading_fixed_release
calc_hessJ_8_tags_heading_fixed_sparsity_in
calc_hessJ_8_tags_heading_fixed_sparsity_out
calc_hessJ_8_tags_heading_fixed_work
calc_hessJ_8_tags_heading_fixed_work_bytes
calc_hessJ_8_tags_heading_free
calc_hessJ_8_tags_heading_free_alloc_mem
calc_hessJ_8_tags_heading_free_checkout
calc_hessJ_8_tags_heading_free_decref
calc_hessJ_8_tags_heading_free_default_in
calc_hessJ_8_tags_heading_free_free_mem
calc_hessJ_8_tags_heading_free_incref
calc_hessJ_8_tags_heading_free_init_mem
calc_hessJ_8_tags_heading_free_n_in
calc_hessJ_8_tags_heading_free_n_out
calc_hessJ_8_tags_heading_free_name_in
calc_hessJ_8_tags_heading_free_name_out
calc_hessJ_8_tags_heading_free_release
calc_hessJ_8_tags_heading_free_sparsity_in
calc_hessJ_8_tags_heading_free_sparsity_out
calc_hessJ_8_tags_heading_free_work
calc_hessJ_8_tags_heading_free_work_bytes
calc_hessJ_9_tags_heading_fixed
calc_hessJ_9_tags_heading_fixed_alloc_mem
calc_hessJ_9_tags_heading_fixed_checkout
calc_hessJ_9_tags_heading_fixed_decref
calc_hessJ_9_tags_heading_fixed_default_in
calc_hessJ_9_tags_heading_fixed_free_mem
calc_hessJ_9_tags_heading_fixed_incref
calc_hessJ_9_tags_heading_fixed_init_mem
calc_hessJ_9_tags_heading_fixed_n_in
calc_hessJ_9_tags_heading_fixed_n_out
calc_hessJ_9_tags_heading_fixed_name_in
calc_hessJ_9_tags_heading_fixed_name_out
calc_hessJ_9_tags_heading_fixed_release
calc_hessJ_9_tags_heading_fixed_sparsity_in
calc_hessJ_9_tags_heading_fixed_sparsity_out
calc_hessJ_9_tags_heading_fixed_work
calc_hessJ_9_tags_heading_fixed_work_bytes
calc_hessJ_9_tags_heading_free
calc_hessJ_9_tags_heading_free_alloc_mem
calc_hessJ_9_tags_heading_free_checkout
calc_hessJ_9_tags_heading_free_decref
calc_hessJ_9_tags_heading_free_default_in
calc_hessJ_9_tags_heading_free_free_mem
calc_hessJ_9_tags_heading_free_incref
calc_hessJ_9_tags_heading_free_init_mem
calc_hessJ_9_tags_heading_free_n_in
calc_hessJ_9_tags_heading_free_n_out
calc_hessJ_9_tags_heading_free_name_in
calc_hessJ_9_tags_heading_free_name_out
calc_hessJ_9_tags_heading_free_release
calc_hessJ_9_tags_heading_free_sparsity_in
calc_hessJ_9_tags_heading_free_sparsity_out
calc_hessJ_9_tags_heading_free_work
calc_hessJ_9_tags_heading_free_work_bytes
constrained_solvepnp_10_tags_fixed_sq
constrained_solvepnp_10_tags_free_sq
constrained_solvepnp_1_tags_fixed_sq
constrained_solvepnp_1_tags_free_sq
constrained_solvepnp_2_tags_fixed_sq
constrained_solvepnp_2_tags_free_sq
constrained_solvepnp_3_tags_fixed_sq
constrained_solvepnp_3_tags_free_sq
constrained_solvepnp_4_tags_fixed_sq
constrained_solvepnp_4_tags_free_sq
constrained_solvepnp_5_tags_fixed_sq
constrained_solvepnp_5_tags_free_sq
constrained_solvepnp_6_tags_fixed_sq
constrained_solvepnp_6_tags_free_sq
constrained_solvepnp_7_tags_fixed_sq
constrained_solvepnp_7_tags_free_sq
constrained_solvepnp_8_tags_fixed_sq
constrained_solvepnp_8_tags_free_sq
constrained_solvepnp_9_tags_fixed_sq
constrained_solvepnp_9_tags_free_sq
